
pg3.elf:     file format elf32-avr


Disassembly of section .text:

00000000 <__vectors>:
       0:	0c 94 34 00 	jmp	0x68	; 0x68 <__ctors_end>
       4:	0c 94 51 00 	jmp	0xa2	; 0xa2 <__bad_interrupt>
       8:	0c 94 51 00 	jmp	0xa2	; 0xa2 <__bad_interrupt>
       c:	0c 94 51 00 	jmp	0xa2	; 0xa2 <__bad_interrupt>
      10:	0c 94 51 00 	jmp	0xa2	; 0xa2 <__bad_interrupt>
      14:	0c 94 51 00 	jmp	0xa2	; 0xa2 <__bad_interrupt>
      18:	0c 94 51 00 	jmp	0xa2	; 0xa2 <__bad_interrupt>
      1c:	0c 94 51 00 	jmp	0xa2	; 0xa2 <__bad_interrupt>
      20:	0c 94 51 00 	jmp	0xa2	; 0xa2 <__bad_interrupt>
      24:	0c 94 51 00 	jmp	0xa2	; 0xa2 <__bad_interrupt>
      28:	0c 94 51 00 	jmp	0xa2	; 0xa2 <__bad_interrupt>
      2c:	0c 94 51 00 	jmp	0xa2	; 0xa2 <__bad_interrupt>
      30:	0c 94 51 00 	jmp	0xa2	; 0xa2 <__bad_interrupt>
      34:	0c 94 51 00 	jmp	0xa2	; 0xa2 <__bad_interrupt>
      38:	0c 94 1c 03 	jmp	0x638	; 0x638 <__vector_14>
      3c:	0c 94 51 00 	jmp	0xa2	; 0xa2 <__bad_interrupt>
      40:	0c 94 51 00 	jmp	0xa2	; 0xa2 <__bad_interrupt>
      44:	0c 94 51 00 	jmp	0xa2	; 0xa2 <__bad_interrupt>
      48:	0c 94 51 00 	jmp	0xa2	; 0xa2 <__bad_interrupt>
      4c:	0c 94 51 00 	jmp	0xa2	; 0xa2 <__bad_interrupt>
      50:	0c 94 51 00 	jmp	0xa2	; 0xa2 <__bad_interrupt>
      54:	0c 94 51 00 	jmp	0xa2	; 0xa2 <__bad_interrupt>
      58:	0c 94 51 00 	jmp	0xa2	; 0xa2 <__bad_interrupt>
      5c:	0c 94 51 00 	jmp	0xa2	; 0xa2 <__bad_interrupt>
      60:	0c 94 51 00 	jmp	0xa2	; 0xa2 <__bad_interrupt>
      64:	0c 94 51 00 	jmp	0xa2	; 0xa2 <__bad_interrupt>

00000068 <__ctors_end>:
      68:	11 24       	eor	r1, r1
      6a:	1f be       	out	0x3f, r1	; 63
      6c:	cf ef       	ldi	r28, 0xFF	; 255
      6e:	d8 e0       	ldi	r29, 0x08	; 8
      70:	de bf       	out	0x3e, r29	; 62
      72:	cd bf       	out	0x3d, r28	; 61

00000074 <__do_copy_data>:
      74:	12 e0       	ldi	r17, 0x02	; 2
      76:	a0 e0       	ldi	r26, 0x00	; 0
      78:	b1 e0       	ldi	r27, 0x01	; 1
      7a:	e8 e4       	ldi	r30, 0x48	; 72
      7c:	fc e1       	ldi	r31, 0x1C	; 28
      7e:	02 c0       	rjmp	.+4      	; 0x84 <__do_copy_data+0x10>
      80:	05 90       	lpm	r0, Z+
      82:	0d 92       	st	X+, r0
      84:	a8 30       	cpi	r26, 0x08	; 8
      86:	b1 07       	cpc	r27, r17
      88:	d9 f7       	brne	.-10     	; 0x80 <__do_copy_data+0xc>

0000008a <__do_clear_bss>:
      8a:	23 e0       	ldi	r18, 0x03	; 3
      8c:	a8 e0       	ldi	r26, 0x08	; 8
      8e:	b2 e0       	ldi	r27, 0x02	; 2
      90:	01 c0       	rjmp	.+2      	; 0x94 <.do_clear_bss_start>

00000092 <.do_clear_bss_loop>:
      92:	1d 92       	st	X+, r1

00000094 <.do_clear_bss_start>:
      94:	a7 32       	cpi	r26, 0x27	; 39
      96:	b2 07       	cpc	r27, r18
      98:	e1 f7       	brne	.-8      	; 0x92 <.do_clear_bss_loop>
      9a:	0e 94 44 0c 	call	0x1888	; 0x1888 <main>
      9e:	0c 94 22 0e 	jmp	0x1c44	; 0x1c44 <_exit>

000000a2 <__bad_interrupt>:
      a2:	0c 94 00 00 	jmp	0	; 0x0 <__vectors>

000000a6 <blink>:
      a6:	80 91 09 02 	lds	r24, 0x0209
      aa:	90 91 0a 02 	lds	r25, 0x020A
      ae:	0a 97       	sbiw	r24, 0x0a	; 10
      b0:	74 f4       	brge	.+28     	; 0xce <blink+0x28>
      b2:	e4 e2       	ldi	r30, 0x24	; 36
      b4:	d0 81       	ld	r29, Z
      b6:	d0 62       	ori	r29, 0x20	; 32
      b8:	d0 83       	st	Z, r29
      ba:	e5 e2       	ldi	r30, 0x25	; 37
      bc:	d0 81       	ld	r29, Z
      be:	d0 62       	ori	r29, 0x20	; 32
      c0:	d0 83       	st	Z, r29
      c2:	80 91 09 02 	lds	r24, 0x0209
      c6:	90 91 0a 02 	lds	r25, 0x020A
      ca:	0a 97       	sbiw	r24, 0x0a	; 10
      cc:	94 f3       	brlt	.-28     	; 0xb2 <blink+0xc>
      ce:	e4 e2       	ldi	r30, 0x24	; 36
      d0:	d0 81       	ld	r29, Z
      d2:	d0 62       	ori	r29, 0x20	; 32
      d4:	d0 83       	st	Z, r29
      d6:	e5 e2       	ldi	r30, 0x25	; 37
      d8:	d0 81       	ld	r29, Z
      da:	df 7d       	andi	r29, 0xDF	; 223
      dc:	d0 83       	st	Z, r29
      de:	e3 cf       	rjmp	.-58     	; 0xa6 <blink>

000000e0 <display_stats>:
      e0:	67 e1       	ldi	r22, 0x17	; 23
      e2:	f6 2e       	mov	r15, r22
      e4:	0e 94 b6 05 	call	0xb6c	; 0xb6c <byte_available>
      e8:	81 11       	cpse	r24, r1
      ea:	fb c0       	rjmp	.+502    	; 0x2e2 <display_stats+0x202>
      ec:	86 e0       	ldi	r24, 0x06	; 6
      ee:	93 e0       	ldi	r25, 0x03	; 3
      f0:	0e 94 07 0c 	call	0x180e	; 0x180e <mutex_lock>
      f4:	60 e0       	ldi	r22, 0x00	; 0
      f6:	80 e0       	ldi	r24, 0x00	; 0
      f8:	0e 94 40 08 	call	0x1080	; 0x1080 <set_cursor>
      fc:	8b e1       	ldi	r24, 0x1B	; 27
      fe:	0e 94 c5 05 	call	0xb8a	; 0xb8a <write_byte>
     102:	8b e5       	ldi	r24, 0x5B	; 91
     104:	0e 94 c5 05 	call	0xb8a	; 0xb8a <write_byte>
     108:	61 e2       	ldi	r22, 0x21	; 33
     10a:	70 e0       	ldi	r23, 0x00	; 0
     10c:	80 e0       	ldi	r24, 0x00	; 0
     10e:	90 e0       	ldi	r25, 0x00	; 0
     110:	0e 94 d1 05 	call	0xba2	; 0xba2 <write_int>
     114:	8d e6       	ldi	r24, 0x6D	; 109
     116:	0e 94 c5 05 	call	0xb8a	; 0xb8a <write_byte>
     11a:	86 e0       	ldi	r24, 0x06	; 6
     11c:	91 e0       	ldi	r25, 0x01	; 1
     11e:	0e 94 63 06 	call	0xcc6	; 0xcc6 <print_string>
     122:	80 91 32 02 	lds	r24, 0x0232
     126:	90 91 33 02 	lds	r25, 0x0233
     12a:	a0 91 34 02 	lds	r26, 0x0234
     12e:	b0 91 35 02 	lds	r27, 0x0235
     132:	0e 94 97 06 	call	0xd2e	; 0xd2e <print_int>
     136:	0e 94 20 06 	call	0xc40	; 0xc40 <next_line>
     13a:	88 e1       	ldi	r24, 0x18	; 24
     13c:	91 e0       	ldi	r25, 0x01	; 1
     13e:	0e 94 63 06 	call	0xcc6	; 0xcc6 <print_string>
     142:	80 91 36 02 	lds	r24, 0x0236
     146:	90 91 37 02 	lds	r25, 0x0237
     14a:	0e 94 97 06 	call	0xd2e	; 0xd2e <print_int>
     14e:	0e 94 20 06 	call	0xc40	; 0xc40 <next_line>
     152:	8c e2       	ldi	r24, 0x2C	; 44
     154:	91 e0       	ldi	r25, 0x01	; 1
     156:	0e 94 63 06 	call	0xcc6	; 0xcc6 <print_string>
     15a:	80 91 f0 02 	lds	r24, 0x02F0
     15e:	90 e0       	ldi	r25, 0x00	; 0
     160:	0e 94 97 06 	call	0xd2e	; 0xd2e <print_int>
     164:	0e 94 20 06 	call	0xc40	; 0xc40 <next_line>
     168:	80 91 f0 02 	lds	r24, 0x02F0
     16c:	88 23       	and	r24, r24
     16e:	09 f4       	brne	.+2      	; 0x172 <display_stats+0x92>
     170:	af c0       	rjmp	.+350    	; 0x2d0 <display_stats+0x1f0>
     172:	00 e0       	ldi	r16, 0x00	; 0
     174:	10 e0       	ldi	r17, 0x00	; 0
     176:	6a c0       	rjmp	.+212    	; 0x24c <display_stats+0x16c>
     178:	8f 81       	ldd	r24, Y+7	; 0x07
     17a:	98 85       	ldd	r25, Y+8	; 0x08
     17c:	2b 85       	ldd	r18, Y+11	; 0x0b
     17e:	3c 85       	ldd	r19, Y+12	; 0x0c
     180:	82 1b       	sub	r24, r18
     182:	93 0b       	sbc	r25, r19
     184:	0e 94 97 06 	call	0xd2e	; 0xd2e <print_int>
     188:	0e 94 20 06 	call	0xc40	; 0xc40 <next_line>
     18c:	8d e6       	ldi	r24, 0x6D	; 109
     18e:	91 e0       	ldi	r25, 0x01	; 1
     190:	0e 94 63 06 	call	0xcc6	; 0xcc6 <print_string>
     194:	fc 9c       	mul	r15, r12
     196:	e0 01       	movw	r28, r0
     198:	fd 9c       	mul	r15, r13
     19a:	d0 0d       	add	r29, r0
     19c:	11 24       	eor	r1, r1
     19e:	ce 5c       	subi	r28, 0xCE	; 206
     1a0:	dd 4f       	sbci	r29, 0xFD	; 253
     1a2:	8f 85       	ldd	r24, Y+15	; 0x0f
     1a4:	98 89       	ldd	r25, Y+16	; 0x10
     1a6:	a9 89       	ldd	r26, Y+17	; 0x11
     1a8:	ba 89       	ldd	r27, Y+18	; 0x12
     1aa:	0e 94 97 06 	call	0xd2e	; 0xd2e <print_int>
     1ae:	0e 94 20 06 	call	0xc40	; 0xc40 <next_line>
     1b2:	8c e7       	ldi	r24, 0x7C	; 124
     1b4:	91 e0       	ldi	r25, 0x01	; 1
     1b6:	0e 94 63 06 	call	0xcc6	; 0xcc6 <print_string>
     1ba:	8b 85       	ldd	r24, Y+11	; 0x0b
     1bc:	9c 85       	ldd	r25, Y+12	; 0x0c
     1be:	0e 94 68 07 	call	0xed0	; 0xed0 <print_hex>
     1c2:	0e 94 20 06 	call	0xc40	; 0xc40 <next_line>
     1c6:	8b e8       	ldi	r24, 0x8B	; 139
     1c8:	91 e0       	ldi	r25, 0x01	; 1
     1ca:	0e 94 63 06 	call	0xcc6	; 0xcc6 <print_string>
     1ce:	8f 81       	ldd	r24, Y+7	; 0x07
     1d0:	98 85       	ldd	r25, Y+8	; 0x08
     1d2:	0e 94 68 07 	call	0xed0	; 0xed0 <print_hex>
     1d6:	0e 94 20 06 	call	0xc40	; 0xc40 <next_line>
     1da:	8a e9       	ldi	r24, 0x9A	; 154
     1dc:	91 e0       	ldi	r25, 0x01	; 1
     1de:	0e 94 63 06 	call	0xcc6	; 0xcc6 <print_string>
     1e2:	89 85       	ldd	r24, Y+9	; 0x09
     1e4:	9a 85       	ldd	r25, Y+10	; 0x0a
     1e6:	0e 94 68 07 	call	0xed0	; 0xed0 <print_hex>
     1ea:	0e 94 20 06 	call	0xc40	; 0xc40 <next_line>
     1ee:	89 ea       	ldi	r24, 0xA9	; 169
     1f0:	91 e0       	ldi	r25, 0x01	; 1
     1f2:	0e 94 63 06 	call	0xcc6	; 0xcc6 <print_string>
     1f6:	69 8d       	ldd	r22, Y+25	; 0x19
     1f8:	7a 8d       	ldd	r23, Y+26	; 0x1a
     1fa:	20 91 32 02 	lds	r18, 0x0232
     1fe:	30 91 33 02 	lds	r19, 0x0233
     202:	40 91 34 02 	lds	r20, 0x0234
     206:	50 91 35 02 	lds	r21, 0x0235
     20a:	80 e0       	ldi	r24, 0x00	; 0
     20c:	90 e0       	ldi	r25, 0x00	; 0
     20e:	0e 94 93 0c 	call	0x1926	; 0x1926 <__udivmodsi4>
     212:	c9 01       	movw	r24, r18
     214:	0e 94 97 06 	call	0xd2e	; 0xd2e <print_int>
     218:	0e 94 20 06 	call	0xc40	; 0xc40 <next_line>
     21c:	88 eb       	ldi	r24, 0xB8	; 184
     21e:	91 e0       	ldi	r25, 0x01	; 1
     220:	0e 94 63 06 	call	0xcc6	; 0xcc6 <print_string>
     224:	2b 8d       	ldd	r18, Y+27	; 0x1b
     226:	8c 8d       	ldd	r24, Y+28	; 0x1c
     228:	90 e0       	ldi	r25, 0x00	; 0
     22a:	98 2f       	mov	r25, r24
     22c:	88 27       	eor	r24, r24
     22e:	82 0f       	add	r24, r18
     230:	91 1d       	adc	r25, r1
     232:	88 0f       	add	r24, r24
     234:	99 1f       	adc	r25, r25
     236:	0e 94 68 07 	call	0xed0	; 0xed0 <print_hex>
     23a:	0e 94 20 06 	call	0xc40	; 0xc40 <next_line>
     23e:	1f 5f       	subi	r17, 0xFF	; 255
     240:	80 91 f0 02 	lds	r24, 0x02F0
     244:	07 5e       	subi	r16, 0xE7	; 231
     246:	18 17       	cp	r17, r24
     248:	08 f0       	brcs	.+2      	; 0x24c <display_stats+0x16c>
     24a:	42 c0       	rjmp	.+132    	; 0x2d0 <display_stats+0x1f0>
     24c:	60 2f       	mov	r22, r16
     24e:	85 e0       	ldi	r24, 0x05	; 5
     250:	0e 94 40 08 	call	0x1080	; 0x1080 <set_cursor>
     254:	8b e1       	ldi	r24, 0x1B	; 27
     256:	0e 94 c5 05 	call	0xb8a	; 0xb8a <write_byte>
     25a:	8b e5       	ldi	r24, 0x5B	; 91
     25c:	0e 94 c5 05 	call	0xb8a	; 0xb8a <write_byte>
     260:	60 e2       	ldi	r22, 0x20	; 32
     262:	70 e0       	ldi	r23, 0x00	; 0
     264:	80 e0       	ldi	r24, 0x00	; 0
     266:	90 e0       	ldi	r25, 0x00	; 0
     268:	0e 94 d1 05 	call	0xba2	; 0xba2 <write_int>
     26c:	8d e6       	ldi	r24, 0x6D	; 109
     26e:	0e 94 c5 05 	call	0xb8a	; 0xb8a <write_byte>
     272:	80 e4       	ldi	r24, 0x40	; 64
     274:	91 e0       	ldi	r25, 0x01	; 1
     276:	0e 94 63 06 	call	0xcc6	; 0xcc6 <print_string>
     27a:	c1 2e       	mov	r12, r17
     27c:	d1 2c       	mov	r13, r1
     27e:	fc 9c       	mul	r15, r12
     280:	e0 01       	movw	r28, r0
     282:	fd 9c       	mul	r15, r13
     284:	d0 0d       	add	r29, r0
     286:	11 24       	eor	r1, r1
     288:	ce 5c       	subi	r28, 0xCE	; 206
     28a:	dd 4f       	sbci	r29, 0xFD	; 253
     28c:	8e 81       	ldd	r24, Y+6	; 0x06
     28e:	90 e0       	ldi	r25, 0x00	; 0
     290:	0e 94 97 06 	call	0xd2e	; 0xd2e <print_int>
     294:	0e 94 20 06 	call	0xc40	; 0xc40 <next_line>
     298:	8f e4       	ldi	r24, 0x4F	; 79
     29a:	91 e0       	ldi	r25, 0x01	; 1
     29c:	0e 94 63 06 	call	0xcc6	; 0xcc6 <print_string>
     2a0:	8b 89       	ldd	r24, Y+19	; 0x13
     2a2:	9c 89       	ldd	r25, Y+20	; 0x14
     2a4:	88 0f       	add	r24, r24
     2a6:	99 1f       	adc	r25, r25
     2a8:	0e 94 68 07 	call	0xed0	; 0xed0 <print_hex>
     2ac:	0e 94 20 06 	call	0xc40	; 0xc40 <next_line>
     2b0:	8e e5       	ldi	r24, 0x5E	; 94
     2b2:	91 e0       	ldi	r25, 0x01	; 1
     2b4:	0e 94 63 06 	call	0xcc6	; 0xcc6 <print_string>
     2b8:	11 23       	and	r17, r17
     2ba:	09 f4       	brne	.+2      	; 0x2be <display_stats+0x1de>
     2bc:	5d cf       	rjmp	.-326    	; 0x178 <display_stats+0x98>
     2be:	89 85       	ldd	r24, Y+9	; 0x09
     2c0:	9a 85       	ldd	r25, Y+10	; 0x0a
     2c2:	2b 85       	ldd	r18, Y+11	; 0x0b
     2c4:	3c 85       	ldd	r19, Y+12	; 0x0c
     2c6:	82 1b       	sub	r24, r18
     2c8:	93 0b       	sbc	r25, r19
     2ca:	0e 94 97 06 	call	0xd2e	; 0xd2e <print_int>
     2ce:	5c cf       	rjmp	.-328    	; 0x188 <display_stats+0xa8>
     2d0:	86 e0       	ldi	r24, 0x06	; 6
     2d2:	93 e0       	ldi	r25, 0x03	; 3
     2d4:	0e 94 0a 0a 	call	0x1414	; 0x1414 <mutex_unlock>
     2d8:	0e 94 b6 05 	call	0xb6c	; 0xb6c <byte_available>
     2dc:	88 23       	and	r24, r24
     2de:	09 f4       	brne	.+2      	; 0x2e2 <display_stats+0x202>
     2e0:	05 cf       	rjmp	.-502    	; 0xec <display_stats+0xc>
     2e2:	0e 94 bc 05 	call	0xb78	; 0xb78 <read_byte>
     2e6:	8b 36       	cpi	r24, 0x6B	; 107
     2e8:	39 f1       	breq	.+78     	; 0x338 <display_stats+0x258>
     2ea:	c0 f0       	brcs	.+48     	; 0x31c <display_stats+0x23c>
     2ec:	8d 36       	cpi	r24, 0x6D	; 109
     2ee:	79 f1       	breq	.+94     	; 0x34e <display_stats+0x26e>
     2f0:	8a 37       	cpi	r24, 0x7A	; 122
     2f2:	09 f0       	breq	.+2      	; 0x2f6 <display_stats+0x216>
     2f4:	fb ce       	rjmp	.-522    	; 0xec <display_stats+0xc>
     2f6:	80 91 18 02 	lds	r24, 0x0218
     2fa:	90 91 19 02 	lds	r25, 0x0219
     2fe:	85 36       	cpi	r24, 0x65	; 101
     300:	91 05       	cpc	r25, r1
     302:	08 f4       	brcc	.+2      	; 0x306 <display_stats+0x226>
     304:	f3 ce       	rjmp	.-538    	; 0xec <display_stats+0xc>
     306:	80 91 18 02 	lds	r24, 0x0218
     30a:	90 91 19 02 	lds	r25, 0x0219
     30e:	84 56       	subi	r24, 0x64	; 100
     310:	91 09       	sbc	r25, r1
     312:	90 93 19 02 	sts	0x0219, r25
     316:	80 93 18 02 	sts	0x0218, r24
     31a:	e8 ce       	rjmp	.-560    	; 0xec <display_stats+0xc>
     31c:	81 36       	cpi	r24, 0x61	; 97
     31e:	09 f0       	breq	.+2      	; 0x322 <display_stats+0x242>
     320:	e5 ce       	rjmp	.-566    	; 0xec <display_stats+0xc>
     322:	80 91 18 02 	lds	r24, 0x0218
     326:	90 91 19 02 	lds	r25, 0x0219
     32a:	8c 59       	subi	r24, 0x9C	; 156
     32c:	9f 4f       	sbci	r25, 0xFF	; 255
     32e:	90 93 19 02 	sts	0x0219, r25
     332:	80 93 18 02 	sts	0x0218, r24
     336:	da ce       	rjmp	.-588    	; 0xec <display_stats+0xc>
     338:	80 91 04 03 	lds	r24, 0x0304
     33c:	90 91 05 03 	lds	r25, 0x0305
     340:	8c 59       	subi	r24, 0x9C	; 156
     342:	9f 4f       	sbci	r25, 0xFF	; 255
     344:	90 93 05 03 	sts	0x0305, r25
     348:	80 93 04 03 	sts	0x0304, r24
     34c:	cf ce       	rjmp	.-610    	; 0xec <display_stats+0xc>
     34e:	80 91 04 03 	lds	r24, 0x0304
     352:	90 91 05 03 	lds	r25, 0x0305
     356:	85 36       	cpi	r24, 0x65	; 101
     358:	91 05       	cpc	r25, r1
     35a:	08 f4       	brcc	.+2      	; 0x35e <display_stats+0x27e>
     35c:	c7 ce       	rjmp	.-626    	; 0xec <display_stats+0xc>
     35e:	80 91 04 03 	lds	r24, 0x0304
     362:	90 91 05 03 	lds	r25, 0x0305
     366:	84 56       	subi	r24, 0x64	; 100
     368:	91 09       	sbc	r25, r1
     36a:	90 93 05 03 	sts	0x0305, r25
     36e:	80 93 04 03 	sts	0x0304, r24
     372:	bc ce       	rjmp	.-648    	; 0xec <display_stats+0xc>

00000374 <display_bounded_buffer>:
     374:	86 e0       	ldi	r24, 0x06	; 6
     376:	93 e0       	ldi	r25, 0x03	; 3
     378:	0e 94 07 0c 	call	0x180e	; 0x180e <mutex_lock>
     37c:	6e e1       	ldi	r22, 0x1E	; 30
     37e:	80 e0       	ldi	r24, 0x00	; 0
     380:	0e 94 40 08 	call	0x1080	; 0x1080 <set_cursor>
     384:	8b e1       	ldi	r24, 0x1B	; 27
     386:	0e 94 c5 05 	call	0xb8a	; 0xb8a <write_byte>
     38a:	8b e5       	ldi	r24, 0x5B	; 91
     38c:	0e 94 c5 05 	call	0xb8a	; 0xb8a <write_byte>
     390:	6f e1       	ldi	r22, 0x1F	; 31
     392:	70 e0       	ldi	r23, 0x00	; 0
     394:	80 e0       	ldi	r24, 0x00	; 0
     396:	90 e0       	ldi	r25, 0x00	; 0
     398:	0e 94 d1 05 	call	0xba2	; 0xba2 <write_int>
     39c:	8d e6       	ldi	r24, 0x6D	; 109
     39e:	0e 94 c5 05 	call	0xb8a	; 0xb8a <write_byte>
     3a2:	87 ec       	ldi	r24, 0xC7	; 199
     3a4:	91 e0       	ldi	r25, 0x01	; 1
     3a6:	0e 94 63 06 	call	0xcc6	; 0xcc6 <print_string>
     3aa:	80 91 18 02 	lds	r24, 0x0218
     3ae:	90 91 19 02 	lds	r25, 0x0219
     3b2:	0e 94 97 06 	call	0xd2e	; 0xd2e <print_int>
     3b6:	0e 94 20 06 	call	0xc40	; 0xc40 <next_line>
     3ba:	87 ee       	ldi	r24, 0xE7	; 231
     3bc:	91 e0       	ldi	r25, 0x01	; 1
     3be:	0e 94 63 06 	call	0xcc6	; 0xcc6 <print_string>
     3c2:	80 91 04 03 	lds	r24, 0x0304
     3c6:	90 91 05 03 	lds	r25, 0x0305
     3ca:	0e 94 97 06 	call	0xd2e	; 0xd2e <print_int>
     3ce:	0e 94 20 06 	call	0xc40	; 0xc40 <next_line>
     3d2:	8c e7       	ldi	r24, 0x7C	; 124
     3d4:	0e 94 c5 05 	call	0xb8a	; 0xb8a <write_byte>
     3d8:	c0 e0       	ldi	r28, 0x00	; 0
     3da:	d0 e0       	ldi	r29, 0x00	; 0
     3dc:	07 c0       	rjmp	.+14     	; 0x3ec <display_bounded_buffer+0x78>
     3de:	80 81       	ld	r24, Z
     3e0:	0e 94 c5 05 	call	0xb8a	; 0xb8a <write_byte>
     3e4:	21 96       	adiw	r28, 0x01	; 1
     3e6:	ca 30       	cpi	r28, 0x0A	; 10
     3e8:	d1 05       	cpc	r29, r1
     3ea:	69 f0       	breq	.+26     	; 0x406 <display_bounded_buffer+0x92>
     3ec:	fe 01       	movw	r30, r28
     3ee:	e8 5d       	subi	r30, 0xD8	; 216
     3f0:	fd 4f       	sbci	r31, 0xFD	; 253
     3f2:	80 81       	ld	r24, Z
     3f4:	81 11       	cpse	r24, r1
     3f6:	f3 cf       	rjmp	.-26     	; 0x3de <display_bounded_buffer+0x6a>
     3f8:	80 e2       	ldi	r24, 0x20	; 32
     3fa:	0e 94 c5 05 	call	0xb8a	; 0xb8a <write_byte>
     3fe:	21 96       	adiw	r28, 0x01	; 1
     400:	ca 30       	cpi	r28, 0x0A	; 10
     402:	d1 05       	cpc	r29, r1
     404:	99 f7       	brne	.-26     	; 0x3ec <display_bounded_buffer+0x78>
     406:	8c e7       	ldi	r24, 0x7C	; 124
     408:	0e 94 c5 05 	call	0xb8a	; 0xb8a <write_byte>
     40c:	86 e0       	ldi	r24, 0x06	; 6
     40e:	93 e0       	ldi	r25, 0x03	; 3
     410:	0e 94 0a 0a 	call	0x1414	; 0x1414 <mutex_unlock>
     414:	af cf       	rjmp	.-162    	; 0x374 <display_bounded_buffer>

00000416 <producer>:
     416:	18 e5       	ldi	r17, 0x58	; 88
     418:	ca e0       	ldi	r28, 0x0A	; 10
     41a:	d0 e0       	ldi	r29, 0x00	; 0
     41c:	20 91 18 02 	lds	r18, 0x0218
     420:	30 91 19 02 	lds	r19, 0x0219
     424:	ad ec       	ldi	r26, 0xCD	; 205
     426:	bc ec       	ldi	r27, 0xCC	; 204
     428:	0e 94 b5 0c 	call	0x196a	; 0x196a <__umulhisi3>
     42c:	96 95       	lsr	r25
     42e:	87 95       	ror	r24
     430:	96 95       	lsr	r25
     432:	87 95       	ror	r24
     434:	96 95       	lsr	r25
     436:	87 95       	ror	r24
     438:	0e 94 34 05 	call	0xa68	; 0xa68 <thread_sleep>
     43c:	85 e1       	ldi	r24, 0x15	; 21
     43e:	93 e0       	ldi	r25, 0x03	; 3
     440:	0e 94 2e 0c 	call	0x185c	; 0x185c <sem_wait>
     444:	8a e1       	ldi	r24, 0x1A	; 26
     446:	92 e0       	ldi	r25, 0x02	; 2
     448:	0e 94 2e 0c 	call	0x185c	; 0x185c <sem_wait>
     44c:	e0 91 08 02 	lds	r30, 0x0208
     450:	f0 e0       	ldi	r31, 0x00	; 0
     452:	e8 5d       	subi	r30, 0xD8	; 216
     454:	fd 4f       	sbci	r31, 0xFD	; 253
     456:	10 83       	st	Z, r17
     458:	8a e1       	ldi	r24, 0x1A	; 26
     45a:	92 e0       	ldi	r25, 0x02	; 2
     45c:	0e 94 f6 0a 	call	0x15ec	; 0x15ec <sem_signal>
     460:	89 e0       	ldi	r24, 0x09	; 9
     462:	92 e0       	ldi	r25, 0x02	; 2
     464:	0e 94 f6 0a 	call	0x15ec	; 0x15ec <sem_signal>
     468:	80 91 08 02 	lds	r24, 0x0208
     46c:	90 e0       	ldi	r25, 0x00	; 0
     46e:	01 96       	adiw	r24, 0x01	; 1
     470:	be 01       	movw	r22, r28
     472:	0e 94 7f 0c 	call	0x18fe	; 0x18fe <__divmodhi4>
     476:	80 93 08 02 	sts	0x0208, r24
     47a:	d0 cf       	rjmp	.-96     	; 0x41c <producer+0x6>

0000047c <consumer>:
     47c:	ca e0       	ldi	r28, 0x0A	; 10
     47e:	d0 e0       	ldi	r29, 0x00	; 0
     480:	89 e0       	ldi	r24, 0x09	; 9
     482:	92 e0       	ldi	r25, 0x02	; 2
     484:	0e 94 2e 0c 	call	0x185c	; 0x185c <sem_wait>
     488:	8a e1       	ldi	r24, 0x1A	; 26
     48a:	92 e0       	ldi	r25, 0x02	; 2
     48c:	0e 94 2e 0c 	call	0x185c	; 0x185c <sem_wait>
     490:	e0 91 17 02 	lds	r30, 0x0217
     494:	f0 e0       	ldi	r31, 0x00	; 0
     496:	e8 5d       	subi	r30, 0xD8	; 216
     498:	fd 4f       	sbci	r31, 0xFD	; 253
     49a:	80 81       	ld	r24, Z
     49c:	e0 91 17 02 	lds	r30, 0x0217
     4a0:	f0 e0       	ldi	r31, 0x00	; 0
     4a2:	e8 5d       	subi	r30, 0xD8	; 216
     4a4:	fd 4f       	sbci	r31, 0xFD	; 253
     4a6:	10 82       	st	Z, r1
     4a8:	8a e1       	ldi	r24, 0x1A	; 26
     4aa:	92 e0       	ldi	r25, 0x02	; 2
     4ac:	0e 94 f6 0a 	call	0x15ec	; 0x15ec <sem_signal>
     4b0:	85 e1       	ldi	r24, 0x15	; 21
     4b2:	93 e0       	ldi	r25, 0x03	; 3
     4b4:	0e 94 f6 0a 	call	0x15ec	; 0x15ec <sem_signal>
     4b8:	80 91 17 02 	lds	r24, 0x0217
     4bc:	90 e0       	ldi	r25, 0x00	; 0
     4be:	01 96       	adiw	r24, 0x01	; 1
     4c0:	be 01       	movw	r22, r28
     4c2:	0e 94 7f 0c 	call	0x18fe	; 0x18fe <__divmodhi4>
     4c6:	80 93 17 02 	sts	0x0217, r24
     4ca:	20 91 04 03 	lds	r18, 0x0304
     4ce:	30 91 05 03 	lds	r19, 0x0305
     4d2:	ad ec       	ldi	r26, 0xCD	; 205
     4d4:	bc ec       	ldi	r27, 0xCC	; 204
     4d6:	0e 94 b5 0c 	call	0x196a	; 0x196a <__umulhisi3>
     4da:	96 95       	lsr	r25
     4dc:	87 95       	ror	r24
     4de:	96 95       	lsr	r25
     4e0:	87 95       	ror	r24
     4e2:	96 95       	lsr	r25
     4e4:	87 95       	ror	r24
     4e6:	0e 94 34 05 	call	0xa68	; 0xa68 <thread_sleep>
     4ea:	ca cf       	rjmp	.-108    	; 0x480 <consumer+0x4>

000004ec <led_on>:
     4ec:	e4 e2       	ldi	r30, 0x24	; 36
     4ee:	d0 81       	ld	r29, Z
     4f0:	d0 62       	ori	r29, 0x20	; 32
     4f2:	d0 83       	st	Z, r29
     4f4:	e5 e2       	ldi	r30, 0x25	; 37
     4f6:	d0 81       	ld	r29, Z
     4f8:	d0 62       	ori	r29, 0x20	; 32
     4fa:	d0 83       	st	Z, r29
     4fc:	08 95       	ret

000004fe <led_off>:
     4fe:	e4 e2       	ldi	r30, 0x24	; 36
     500:	d0 81       	ld	r29, Z
     502:	d0 62       	ori	r29, 0x20	; 32
     504:	d0 83       	st	Z, r29
     506:	e5 e2       	ldi	r30, 0x25	; 37
     508:	d0 81       	ld	r29, Z
     50a:	df 7d       	andi	r29, 0xDF	; 223
     50c:	d0 83       	st	Z, r29
     50e:	08 95       	ret

00000510 <buffer_init>:
     510:	8a e0       	ldi	r24, 0x0A	; 10
     512:	e8 e2       	ldi	r30, 0x28	; 40
     514:	f2 e0       	ldi	r31, 0x02	; 2
     516:	df 01       	movw	r26, r30
     518:	1d 92       	st	X+, r1
     51a:	8a 95       	dec	r24
     51c:	e9 f7       	brne	.-6      	; 0x518 <buffer_init+0x8>
     51e:	88 ee       	ldi	r24, 0xE8	; 232
     520:	93 e0       	ldi	r25, 0x03	; 3
     522:	90 93 05 03 	sts	0x0305, r25
     526:	80 93 04 03 	sts	0x0304, r24
     52a:	90 93 19 02 	sts	0x0219, r25
     52e:	80 93 18 02 	sts	0x0218, r24
     532:	10 92 08 02 	sts	0x0208, r1
     536:	10 92 17 02 	sts	0x0217, r1
     53a:	08 95       	ret

0000053c <thread_start>:
     53c:	78 94       	sei
     53e:	84 2d       	mov	r24, r4
     540:	95 2d       	mov	r25, r5
     542:	e2 2d       	mov	r30, r2
     544:	f3 2d       	mov	r31, r3
     546:	09 94       	ijmp

00000548 <get_next_thread>:
     548:	cf 93       	push	r28
     54a:	80 91 f1 02 	lds	r24, 0x02F1
     54e:	60 91 f0 02 	lds	r22, 0x02F0
     552:	90 e0       	ldi	r25, 0x00	; 0
     554:	01 96       	adiw	r24, 0x01	; 1
     556:	70 e0       	ldi	r23, 0x00	; 0
     558:	0e 94 7f 0c 	call	0x18fe	; 0x18fe <__divmodhi4>
     55c:	9c 01       	movw	r18, r24
     55e:	33 27       	eor	r19, r19
     560:	47 e1       	ldi	r20, 0x17	; 23
     562:	42 9f       	mul	r20, r18
     564:	f0 01       	movw	r30, r0
     566:	43 9f       	mul	r20, r19
     568:	f0 0d       	add	r31, r0
     56a:	11 24       	eor	r1, r1
     56c:	ee 5c       	subi	r30, 0xCE	; 206
     56e:	fd 4f       	sbci	r31, 0xFD	; 253
     570:	45 89       	ldd	r20, Z+21	; 0x15
     572:	56 89       	ldd	r21, Z+22	; 0x16
     574:	41 30       	cpi	r20, 0x01	; 1
     576:	51 05       	cpc	r21, r1
     578:	b1 f0       	breq	.+44     	; 0x5a6 <get_next_thread+0x5e>
     57a:	c7 e1       	ldi	r28, 0x17	; 23
     57c:	60 91 f0 02 	lds	r22, 0x02F0
     580:	c9 01       	movw	r24, r18
     582:	01 96       	adiw	r24, 0x01	; 1
     584:	70 e0       	ldi	r23, 0x00	; 0
     586:	0e 94 7f 0c 	call	0x18fe	; 0x18fe <__divmodhi4>
     58a:	9c 01       	movw	r18, r24
     58c:	33 27       	eor	r19, r19
     58e:	c2 9f       	mul	r28, r18
     590:	f0 01       	movw	r30, r0
     592:	c3 9f       	mul	r28, r19
     594:	f0 0d       	add	r31, r0
     596:	11 24       	eor	r1, r1
     598:	ee 5c       	subi	r30, 0xCE	; 206
     59a:	fd 4f       	sbci	r31, 0xFD	; 253
     59c:	45 89       	ldd	r20, Z+21	; 0x15
     59e:	56 89       	ldd	r21, Z+22	; 0x16
     5a0:	41 30       	cpi	r20, 0x01	; 1
     5a2:	51 05       	cpc	r21, r1
     5a4:	59 f7       	brne	.-42     	; 0x57c <get_next_thread+0x34>
     5a6:	cf 91       	pop	r28
     5a8:	08 95       	ret

000005aa <start_system_timer>:
     5aa:	ee e6       	ldi	r30, 0x6E	; 110
     5ac:	f0 e0       	ldi	r31, 0x00	; 0
     5ae:	80 81       	ld	r24, Z
     5b0:	82 60       	ori	r24, 0x02	; 2
     5b2:	80 83       	st	Z, r24
     5b4:	84 b5       	in	r24, 0x24	; 36
     5b6:	82 60       	ori	r24, 0x02	; 2
     5b8:	84 bd       	out	0x24, r24	; 36
     5ba:	85 b5       	in	r24, 0x25	; 37
     5bc:	85 60       	ori	r24, 0x05	; 5
     5be:	85 bd       	out	0x25, r24	; 37
     5c0:	8c e9       	ldi	r24, 0x9C	; 156
     5c2:	87 bd       	out	0x27, r24	; 39
     5c4:	08 95       	ret

000005c6 <context_switch>:
     5c6:	2f 92       	push	r2
     5c8:	3f 92       	push	r3
     5ca:	4f 92       	push	r4
     5cc:	5f 92       	push	r5
     5ce:	6f 92       	push	r6
     5d0:	7f 92       	push	r7
     5d2:	8f 92       	push	r8
     5d4:	9f 92       	push	r9
     5d6:	af 92       	push	r10
     5d8:	bf 92       	push	r11
     5da:	cf 92       	push	r12
     5dc:	df 92       	push	r13
     5de:	ef 92       	push	r14
     5e0:	ff 92       	push	r15
     5e2:	0f 93       	push	r16
     5e4:	1f 93       	push	r17
     5e6:	cf 93       	push	r28
     5e8:	df 93       	push	r29
     5ea:	ff 27       	eor	r31, r31
     5ec:	ed e5       	ldi	r30, 0x5D	; 93
     5ee:	00 81       	ld	r16, Z
     5f0:	ff 27       	eor	r31, r31
     5f2:	ee e5       	ldi	r30, 0x5E	; 94
     5f4:	10 81       	ld	r17, Z
     5f6:	e6 2f       	mov	r30, r22
     5f8:	f7 2f       	mov	r31, r23
     5fa:	01 93       	st	Z+, r16
     5fc:	10 83       	st	Z, r17
     5fe:	e8 2f       	mov	r30, r24
     600:	f9 2f       	mov	r31, r25
     602:	01 91       	ld	r16, Z+
     604:	10 81       	ld	r17, Z
     606:	ff 27       	eor	r31, r31
     608:	ed e5       	ldi	r30, 0x5D	; 93
     60a:	00 83       	st	Z, r16
     60c:	ff 27       	eor	r31, r31
     60e:	ee e5       	ldi	r30, 0x5E	; 94
     610:	10 83       	st	Z, r17
     612:	df 91       	pop	r29
     614:	cf 91       	pop	r28
     616:	1f 91       	pop	r17
     618:	0f 91       	pop	r16
     61a:	ff 90       	pop	r15
     61c:	ef 90       	pop	r14
     61e:	df 90       	pop	r13
     620:	cf 90       	pop	r12
     622:	bf 90       	pop	r11
     624:	af 90       	pop	r10
     626:	9f 90       	pop	r9
     628:	8f 90       	pop	r8
     62a:	7f 90       	pop	r7
     62c:	6f 90       	pop	r6
     62e:	5f 90       	pop	r5
     630:	4f 90       	pop	r4
     632:	3f 90       	pop	r3
     634:	2f 90       	pop	r2
     636:	08 95       	ret

00000638 <__vector_14>:
     638:	1f 92       	push	r1
     63a:	0f 92       	push	r0
     63c:	0f b6       	in	r0, 0x3f	; 63
     63e:	0f 92       	push	r0
     640:	11 24       	eor	r1, r1
     642:	0f 93       	push	r16
     644:	1f 93       	push	r17
     646:	2f 93       	push	r18
     648:	3f 93       	push	r19
     64a:	4f 93       	push	r20
     64c:	5f 93       	push	r21
     64e:	6f 93       	push	r22
     650:	7f 93       	push	r23
     652:	8f 93       	push	r24
     654:	9f 93       	push	r25
     656:	af 93       	push	r26
     658:	bf 93       	push	r27
     65a:	ef 93       	push	r30
     65c:	ff 93       	push	r31
     65e:	cf 93       	push	r28
     660:	df 93       	push	r29
     662:	00 d0       	rcall	.+0      	; 0x664 <__vector_14+0x2c>
     664:	cd b7       	in	r28, 0x3d	; 61
     666:	de b7       	in	r29, 0x3e	; 62
     668:	80 91 f1 02 	lds	r24, 0x02F1
     66c:	8a 83       	std	Y+2, r24	; 0x02
     66e:	60 91 f2 02 	lds	r22, 0x02F2
     672:	70 91 f3 02 	lds	r23, 0x02F3
     676:	80 91 f4 02 	lds	r24, 0x02F4
     67a:	90 91 f5 02 	lds	r25, 0x02F5
     67e:	24 e6       	ldi	r18, 0x64	; 100
     680:	30 e0       	ldi	r19, 0x00	; 0
     682:	40 e0       	ldi	r20, 0x00	; 0
     684:	50 e0       	ldi	r21, 0x00	; 0
     686:	0e 94 93 0c 	call	0x1926	; 0x1926 <__udivmodsi4>
     68a:	20 93 32 02 	sts	0x0232, r18
     68e:	30 93 33 02 	sts	0x0233, r19
     692:	40 93 34 02 	sts	0x0234, r20
     696:	50 93 35 02 	sts	0x0235, r21
     69a:	60 91 f2 02 	lds	r22, 0x02F2
     69e:	70 91 f3 02 	lds	r23, 0x02F3
     6a2:	80 91 f4 02 	lds	r24, 0x02F4
     6a6:	90 91 f5 02 	lds	r25, 0x02F5
     6aa:	8b 01       	movw	r16, r22
     6ac:	9c 01       	movw	r18, r24
     6ae:	0f 5f       	subi	r16, 0xFF	; 255
     6b0:	1f 4f       	sbci	r17, 0xFF	; 255
     6b2:	2f 4f       	sbci	r18, 0xFF	; 255
     6b4:	3f 4f       	sbci	r19, 0xFF	; 255
     6b6:	00 93 f2 02 	sts	0x02F2, r16
     6ba:	10 93 f3 02 	sts	0x02F3, r17
     6be:	20 93 f4 02 	sts	0x02F4, r18
     6c2:	30 93 f5 02 	sts	0x02F5, r19
     6c6:	20 91 32 02 	lds	r18, 0x0232
     6ca:	30 91 33 02 	lds	r19, 0x0233
     6ce:	40 91 34 02 	lds	r20, 0x0234
     6d2:	50 91 35 02 	lds	r21, 0x0235
     6d6:	0e 94 93 0c 	call	0x1926	; 0x1926 <__udivmodsi4>
     6da:	30 93 37 02 	sts	0x0237, r19
     6de:	20 93 36 02 	sts	0x0236, r18
     6e2:	aa 81       	ldd	r26, Y+2	; 0x02
     6e4:	87 e1       	ldi	r24, 0x17	; 23
     6e6:	8a 9f       	mul	r24, r26
     6e8:	d0 01       	movw	r26, r0
     6ea:	11 24       	eor	r1, r1
     6ec:	ae 5c       	subi	r26, 0xCE	; 206
     6ee:	bd 4f       	sbci	r27, 0xFD	; 253
     6f0:	1b 96       	adiw	r26, 0x0b	; 11
     6f2:	ed 91       	ld	r30, X+
     6f4:	fc 91       	ld	r31, X
     6f6:	1c 97       	sbiw	r26, 0x0c	; 12
     6f8:	7a 96       	adiw	r30, 0x1a	; 26
     6fa:	aa 81       	ldd	r26, Y+2	; 0x02
     6fc:	91 89       	ldd	r25, Z+17	; 0x11
     6fe:	8a 9f       	mul	r24, r26
     700:	d0 01       	movw	r26, r0
     702:	11 24       	eor	r1, r1
     704:	ae 5c       	subi	r26, 0xCE	; 206
     706:	bd 4f       	sbci	r27, 0xFD	; 253
     708:	5b 96       	adiw	r26, 0x1b	; 27
     70a:	9c 93       	st	X, r25
     70c:	2a 81       	ldd	r18, Y+2	; 0x02
     70e:	90 89       	ldd	r25, Z+16	; 0x10
     710:	82 9f       	mul	r24, r18
     712:	f0 01       	movw	r30, r0
     714:	11 24       	eor	r1, r1
     716:	ee 5c       	subi	r30, 0xCE	; 206
     718:	fd 4f       	sbci	r31, 0xFD	; 253
     71a:	94 8f       	std	Z+28, r25	; 0x1c
     71c:	19 82       	std	Y+1, r1	; 0x01
     71e:	89 81       	ldd	r24, Y+1	; 0x01
     720:	88 30       	cpi	r24, 0x08	; 8
     722:	08 f0       	brcs	.+2      	; 0x726 <__vector_14+0xee>
     724:	3f c0       	rjmp	.+126    	; 0x7a4 <__vector_14+0x16c>
     726:	47 e1       	ldi	r20, 0x17	; 23
     728:	21 e0       	ldi	r18, 0x01	; 1
     72a:	30 e0       	ldi	r19, 0x00	; 0
     72c:	06 c0       	rjmp	.+12     	; 0x73a <__vector_14+0x102>
     72e:	89 81       	ldd	r24, Y+1	; 0x01
     730:	8f 5f       	subi	r24, 0xFF	; 255
     732:	89 83       	std	Y+1, r24	; 0x01
     734:	89 81       	ldd	r24, Y+1	; 0x01
     736:	88 30       	cpi	r24, 0x08	; 8
     738:	a8 f5       	brcc	.+106    	; 0x7a4 <__vector_14+0x16c>
     73a:	e9 81       	ldd	r30, Y+1	; 0x01
     73c:	4e 9f       	mul	r20, r30
     73e:	f0 01       	movw	r30, r0
     740:	11 24       	eor	r1, r1
     742:	ee 5c       	subi	r30, 0xCE	; 206
     744:	fd 4f       	sbci	r31, 0xFD	; 253
     746:	85 89       	ldd	r24, Z+21	; 0x15
     748:	96 89       	ldd	r25, Z+22	; 0x16
     74a:	02 97       	sbiw	r24, 0x02	; 2
     74c:	81 f7       	brne	.-32     	; 0x72e <__vector_14+0xf6>
     74e:	89 81       	ldd	r24, Y+1	; 0x01
     750:	90 e0       	ldi	r25, 0x00	; 0
     752:	01 96       	adiw	r24, 0x01	; 1
     754:	48 9f       	mul	r20, r24
     756:	f0 01       	movw	r30, r0
     758:	49 9f       	mul	r20, r25
     75a:	f0 0d       	add	r31, r0
     75c:	11 24       	eor	r1, r1
     75e:	ee 5c       	subi	r30, 0xCE	; 206
     760:	fd 4f       	sbci	r31, 0xFD	; 253
     762:	80 81       	ld	r24, Z
     764:	91 81       	ldd	r25, Z+1	; 0x01
     766:	01 97       	sbiw	r24, 0x01	; 1
     768:	91 83       	std	Z+1, r25	; 0x01
     76a:	80 83       	st	Z, r24
     76c:	89 81       	ldd	r24, Y+1	; 0x01
     76e:	90 e0       	ldi	r25, 0x00	; 0
     770:	01 96       	adiw	r24, 0x01	; 1
     772:	48 9f       	mul	r20, r24
     774:	f0 01       	movw	r30, r0
     776:	49 9f       	mul	r20, r25
     778:	f0 0d       	add	r31, r0
     77a:	11 24       	eor	r1, r1
     77c:	ee 5c       	subi	r30, 0xCE	; 206
     77e:	fd 4f       	sbci	r31, 0xFD	; 253
     780:	80 81       	ld	r24, Z
     782:	91 81       	ldd	r25, Z+1	; 0x01
     784:	89 2b       	or	r24, r25
     786:	99 f6       	brne	.-90     	; 0x72e <__vector_14+0xf6>
     788:	e9 81       	ldd	r30, Y+1	; 0x01
     78a:	4e 9f       	mul	r20, r30
     78c:	f0 01       	movw	r30, r0
     78e:	11 24       	eor	r1, r1
     790:	ee 5c       	subi	r30, 0xCE	; 206
     792:	fd 4f       	sbci	r31, 0xFD	; 253
     794:	36 8b       	std	Z+22, r19	; 0x16
     796:	25 8b       	std	Z+21, r18	; 0x15
     798:	89 81       	ldd	r24, Y+1	; 0x01
     79a:	8f 5f       	subi	r24, 0xFF	; 255
     79c:	89 83       	std	Y+1, r24	; 0x01
     79e:	89 81       	ldd	r24, Y+1	; 0x01
     7a0:	88 30       	cpi	r24, 0x08	; 8
     7a2:	58 f2       	brcs	.-106    	; 0x73a <__vector_14+0x102>
     7a4:	ea 81       	ldd	r30, Y+2	; 0x02
     7a6:	47 e1       	ldi	r20, 0x17	; 23
     7a8:	4e 9f       	mul	r20, r30
     7aa:	f0 01       	movw	r30, r0
     7ac:	11 24       	eor	r1, r1
     7ae:	ee 5c       	subi	r30, 0xCE	; 206
     7b0:	fd 4f       	sbci	r31, 0xFD	; 253
     7b2:	81 e0       	ldi	r24, 0x01	; 1
     7b4:	90 e0       	ldi	r25, 0x00	; 0
     7b6:	96 8b       	std	Z+22, r25	; 0x16
     7b8:	85 8b       	std	Z+21, r24	; 0x15
     7ba:	80 91 f1 02 	lds	r24, 0x02F1
     7be:	60 91 f0 02 	lds	r22, 0x02F0
     7c2:	90 e0       	ldi	r25, 0x00	; 0
     7c4:	01 96       	adiw	r24, 0x01	; 1
     7c6:	70 e0       	ldi	r23, 0x00	; 0
     7c8:	0e 94 7f 0c 	call	0x18fe	; 0x18fe <__divmodhi4>
     7cc:	9c 01       	movw	r18, r24
     7ce:	33 27       	eor	r19, r19
     7d0:	42 9f       	mul	r20, r18
     7d2:	f0 01       	movw	r30, r0
     7d4:	43 9f       	mul	r20, r19
     7d6:	f0 0d       	add	r31, r0
     7d8:	11 24       	eor	r1, r1
     7da:	ee 5c       	subi	r30, 0xCE	; 206
     7dc:	fd 4f       	sbci	r31, 0xFD	; 253
     7de:	45 89       	ldd	r20, Z+21	; 0x15
     7e0:	56 89       	ldd	r21, Z+22	; 0x16
     7e2:	41 30       	cpi	r20, 0x01	; 1
     7e4:	51 05       	cpc	r21, r1
     7e6:	b1 f0       	breq	.+44     	; 0x814 <__vector_14+0x1dc>
     7e8:	17 e1       	ldi	r17, 0x17	; 23
     7ea:	60 91 f0 02 	lds	r22, 0x02F0
     7ee:	c9 01       	movw	r24, r18
     7f0:	01 96       	adiw	r24, 0x01	; 1
     7f2:	70 e0       	ldi	r23, 0x00	; 0
     7f4:	0e 94 7f 0c 	call	0x18fe	; 0x18fe <__divmodhi4>
     7f8:	9c 01       	movw	r18, r24
     7fa:	33 27       	eor	r19, r19
     7fc:	12 9f       	mul	r17, r18
     7fe:	f0 01       	movw	r30, r0
     800:	13 9f       	mul	r17, r19
     802:	f0 0d       	add	r31, r0
     804:	11 24       	eor	r1, r1
     806:	ee 5c       	subi	r30, 0xCE	; 206
     808:	fd 4f       	sbci	r31, 0xFD	; 253
     80a:	45 89       	ldd	r20, Z+21	; 0x15
     80c:	56 89       	ldd	r21, Z+22	; 0x16
     80e:	41 30       	cpi	r20, 0x01	; 1
     810:	51 05       	cpc	r21, r1
     812:	59 f7       	brne	.-42     	; 0x7ea <__vector_14+0x1b2>
     814:	80 93 f1 02 	sts	0x02F1, r24
     818:	e0 91 f1 02 	lds	r30, 0x02F1
     81c:	87 e1       	ldi	r24, 0x17	; 23
     81e:	8e 9f       	mul	r24, r30
     820:	f0 01       	movw	r30, r0
     822:	11 24       	eor	r1, r1
     824:	ee 5c       	subi	r30, 0xCE	; 206
     826:	fd 4f       	sbci	r31, 0xFD	; 253
     828:	16 8a       	std	Z+22, r1	; 0x16
     82a:	15 8a       	std	Z+21, r1	; 0x15
     82c:	e0 91 f1 02 	lds	r30, 0x02F1
     830:	8e 9f       	mul	r24, r30
     832:	f0 01       	movw	r30, r0
     834:	11 24       	eor	r1, r1
     836:	ee 5c       	subi	r30, 0xCE	; 206
     838:	fd 4f       	sbci	r31, 0xFD	; 253
     83a:	21 8d       	ldd	r18, Z+25	; 0x19
     83c:	32 8d       	ldd	r19, Z+26	; 0x1a
     83e:	2f 5f       	subi	r18, 0xFF	; 255
     840:	3f 4f       	sbci	r19, 0xFF	; 255
     842:	32 8f       	std	Z+26, r19	; 0x1a
     844:	21 8f       	std	Z+25, r18	; 0x19
     846:	6a 81       	ldd	r22, Y+2	; 0x02
     848:	90 91 f1 02 	lds	r25, 0x02F1
     84c:	86 9f       	mul	r24, r22
     84e:	b0 01       	movw	r22, r0
     850:	11 24       	eor	r1, r1
     852:	63 5c       	subi	r22, 0xC3	; 195
     854:	7d 4f       	sbci	r23, 0xFD	; 253
     856:	89 9f       	mul	r24, r25
     858:	c0 01       	movw	r24, r0
     85a:	11 24       	eor	r1, r1
     85c:	83 5c       	subi	r24, 0xC3	; 195
     85e:	9d 4f       	sbci	r25, 0xFD	; 253
     860:	0e 94 e3 02 	call	0x5c6	; 0x5c6 <context_switch>
     864:	0f 90       	pop	r0
     866:	0f 90       	pop	r0
     868:	df 91       	pop	r29
     86a:	cf 91       	pop	r28
     86c:	ff 91       	pop	r31
     86e:	ef 91       	pop	r30
     870:	bf 91       	pop	r27
     872:	af 91       	pop	r26
     874:	9f 91       	pop	r25
     876:	8f 91       	pop	r24
     878:	7f 91       	pop	r23
     87a:	6f 91       	pop	r22
     87c:	5f 91       	pop	r21
     87e:	4f 91       	pop	r20
     880:	3f 91       	pop	r19
     882:	2f 91       	pop	r18
     884:	1f 91       	pop	r17
     886:	0f 91       	pop	r16
     888:	0f 90       	pop	r0
     88a:	0f be       	out	0x3f, r0	; 63
     88c:	0f 90       	pop	r0
     88e:	1f 90       	pop	r1
     890:	18 95       	reti

00000892 <os_start>:
     892:	ee e6       	ldi	r30, 0x6E	; 110
     894:	f0 e0       	ldi	r31, 0x00	; 0
     896:	80 81       	ld	r24, Z
     898:	82 60       	ori	r24, 0x02	; 2
     89a:	80 83       	st	Z, r24
     89c:	84 b5       	in	r24, 0x24	; 36
     89e:	82 60       	ori	r24, 0x02	; 2
     8a0:	84 bd       	out	0x24, r24	; 36
     8a2:	85 b5       	in	r24, 0x25	; 37
     8a4:	85 60       	ori	r24, 0x05	; 5
     8a6:	85 bd       	out	0x25, r24	; 37
     8a8:	8c e9       	ldi	r24, 0x9C	; 156
     8aa:	87 bd       	out	0x27, r24	; 39
     8ac:	0e 94 e9 08 	call	0x11d2	; 0x11d2 <clear_screen>
     8b0:	10 92 38 02 	sts	0x0238, r1
     8b4:	8f ef       	ldi	r24, 0xFF	; 255
     8b6:	98 e0       	ldi	r25, 0x08	; 8
     8b8:	90 93 3a 02 	sts	0x023A, r25
     8bc:	80 93 39 02 	sts	0x0239, r24
     8c0:	10 92 3c 02 	sts	0x023C, r1
     8c4:	10 92 3b 02 	sts	0x023B, r1
     8c8:	10 92 40 02 	sts	0x0240, r1
     8cc:	10 92 3f 02 	sts	0x023F, r1
     8d0:	84 e4       	ldi	r24, 0x44	; 68
     8d2:	9c e0       	ldi	r25, 0x0C	; 12
     8d4:	90 93 46 02 	sts	0x0246, r25
     8d8:	80 93 45 02 	sts	0x0245, r24
     8dc:	10 92 48 02 	sts	0x0248, r1
     8e0:	10 92 47 02 	sts	0x0247, r1
     8e4:	10 92 4a 02 	sts	0x024A, r1
     8e8:	10 92 49 02 	sts	0x0249, r1
     8ec:	10 92 4c 02 	sts	0x024C, r1
     8f0:	10 92 4b 02 	sts	0x024B, r1
     8f4:	10 92 4d 02 	sts	0x024D, r1
     8f8:	10 92 4e 02 	sts	0x024E, r1
     8fc:	6d e3       	ldi	r22, 0x3D	; 61
     8fe:	72 e0       	ldi	r23, 0x02	; 2
     900:	cb 01       	movw	r24, r22
     902:	0e 94 e3 02 	call	0x5c6	; 0x5c6 <context_switch>
     906:	8f ef       	ldi	r24, 0xFF	; 255
     908:	97 e0       	ldi	r25, 0x07	; 7
     90a:	a0 e0       	ldi	r26, 0x00	; 0
     90c:	b0 e0       	ldi	r27, 0x00	; 0
     90e:	80 93 41 02 	sts	0x0241, r24
     912:	90 93 42 02 	sts	0x0242, r25
     916:	a0 93 43 02 	sts	0x0243, r26
     91a:	b0 93 44 02 	sts	0x0244, r27
     91e:	08 95       	ret

00000920 <os_init>:
     920:	10 92 32 02 	sts	0x0232, r1
     924:	10 92 33 02 	sts	0x0233, r1
     928:	10 92 34 02 	sts	0x0234, r1
     92c:	10 92 35 02 	sts	0x0235, r1
     930:	10 92 37 02 	sts	0x0237, r1
     934:	10 92 36 02 	sts	0x0236, r1
     938:	81 e0       	ldi	r24, 0x01	; 1
     93a:	80 93 f0 02 	sts	0x02F0, r24
     93e:	10 92 f2 02 	sts	0x02F2, r1
     942:	10 92 f3 02 	sts	0x02F3, r1
     946:	10 92 f4 02 	sts	0x02F4, r1
     94a:	10 92 f5 02 	sts	0x02F5, r1
     94e:	10 92 f1 02 	sts	0x02F1, r1
     952:	08 95       	ret

00000954 <create_thread>:
     954:	9f 92       	push	r9
     956:	af 92       	push	r10
     958:	bf 92       	push	r11
     95a:	cf 92       	push	r12
     95c:	df 92       	push	r13
     95e:	ef 92       	push	r14
     960:	ff 92       	push	r15
     962:	0f 93       	push	r16
     964:	1f 93       	push	r17
     966:	cf 93       	push	r28
     968:	df 93       	push	r29
     96a:	8c 01       	movw	r16, r24
     96c:	7b 01       	movw	r14, r22
     96e:	5a 01       	movw	r10, r20
     970:	20 91 f0 02 	lds	r18, 0x02F0
     974:	81 e0       	ldi	r24, 0x01	; 1
     976:	82 0f       	add	r24, r18
     978:	80 93 f0 02 	sts	0x02F0, r24
     97c:	c2 2e       	mov	r12, r18
     97e:	d1 2c       	mov	r13, r1
     980:	ca 01       	movw	r24, r20
     982:	89 5b       	subi	r24, 0xB9	; 185
     984:	9f 4f       	sbci	r25, 0xFF	; 255
     986:	a0 e0       	ldi	r26, 0x00	; 0
     988:	b0 e0       	ldi	r27, 0x00	; 0
     98a:	37 e1       	ldi	r19, 0x17	; 23
     98c:	93 2e       	mov	r9, r19
     98e:	9c 9c       	mul	r9, r12
     990:	e0 01       	movw	r28, r0
     992:	9d 9c       	mul	r9, r13
     994:	d0 0d       	add	r29, r0
     996:	11 24       	eor	r1, r1
     998:	ce 5c       	subi	r28, 0xCE	; 206
     99a:	dd 4f       	sbci	r29, 0xFD	; 253
     99c:	8f 87       	std	Y+15, r24	; 0x0f
     99e:	98 8b       	std	Y+16, r25	; 0x10
     9a0:	a9 8b       	std	Y+17, r26	; 0x11
     9a2:	ba 8b       	std	Y+18, r27	; 0x12
     9a4:	2e 83       	std	Y+6, r18	; 0x06
     9a6:	6f 85       	ldd	r22, Y+15	; 0x0f
     9a8:	78 89       	ldd	r23, Y+16	; 0x10
     9aa:	89 89       	ldd	r24, Y+17	; 0x11
     9ac:	9a 89       	ldd	r25, Y+18	; 0x12
     9ae:	81 e0       	ldi	r24, 0x01	; 1
     9b0:	90 e0       	ldi	r25, 0x00	; 0
     9b2:	0e 94 d8 0c 	call	0x19b0	; 0x19b0 <calloc>
     9b6:	98 87       	std	Y+8, r25	; 0x08
     9b8:	8f 83       	std	Y+7, r24	; 0x07
     9ba:	be 86       	std	Y+14, r11	; 0x0e
     9bc:	ad 86       	std	Y+13, r10	; 0x0d
     9be:	1c 8b       	std	Y+20, r17	; 0x14
     9c0:	0b 8b       	std	Y+19, r16	; 0x13
     9c2:	c6 01       	movw	r24, r12
     9c4:	01 96       	adiw	r24, 0x01	; 1
     9c6:	98 9e       	mul	r9, r24
     9c8:	f0 01       	movw	r30, r0
     9ca:	99 9e       	mul	r9, r25
     9cc:	f0 0d       	add	r31, r0
     9ce:	11 24       	eor	r1, r1
     9d0:	ee 5c       	subi	r30, 0xCE	; 206
     9d2:	fd 4f       	sbci	r31, 0xFD	; 253
     9d4:	11 82       	std	Z+1, r1	; 0x01
     9d6:	10 82       	st	Z, r1
     9d8:	1a 8e       	std	Y+26, r1	; 0x1a
     9da:	19 8e       	std	Y+25, r1	; 0x19
     9dc:	1b 8e       	std	Y+27, r1	; 0x1b
     9de:	1c 8e       	std	Y+28, r1	; 0x1c
     9e0:	8f 81       	ldd	r24, Y+7	; 0x07
     9e2:	98 85       	ldd	r25, Y+8	; 0x08
     9e4:	4f 85       	ldd	r20, Y+15	; 0x0f
     9e6:	58 89       	ldd	r21, Y+16	; 0x10
     9e8:	69 89       	ldd	r22, Y+17	; 0x11
     9ea:	7a 89       	ldd	r23, Y+18	; 0x12
     9ec:	84 0f       	add	r24, r20
     9ee:	95 1f       	adc	r25, r21
     9f0:	9a 87       	std	Y+10, r25	; 0x0a
     9f2:	89 87       	std	Y+9, r24	; 0x09
     9f4:	e9 85       	ldd	r30, Y+9	; 0x09
     9f6:	fa 85       	ldd	r31, Y+10	; 0x0a
     9f8:	31 97       	sbiw	r30, 0x01	; 1
     9fa:	8e e9       	ldi	r24, 0x9E	; 158
     9fc:	92 e0       	ldi	r25, 0x02	; 2
     9fe:	80 83       	st	Z, r24
     a00:	e9 85       	ldd	r30, Y+9	; 0x09
     a02:	fa 85       	ldd	r31, Y+10	; 0x0a
     a04:	32 97       	sbiw	r30, 0x02	; 2
     a06:	90 83       	st	Z, r25
     a08:	e9 85       	ldd	r30, Y+9	; 0x09
     a0a:	fa 85       	ldd	r31, Y+10	; 0x0a
     a0c:	33 97       	sbiw	r30, 0x03	; 3
     a0e:	00 83       	st	Z, r16
     a10:	e9 85       	ldd	r30, Y+9	; 0x09
     a12:	fa 85       	ldd	r31, Y+10	; 0x0a
     a14:	34 97       	sbiw	r30, 0x04	; 4
     a16:	10 83       	st	Z, r17
     a18:	e1 14       	cp	r14, r1
     a1a:	f1 04       	cpc	r15, r1
     a1c:	41 f0       	breq	.+16     	; 0xa2e <create_thread+0xda>
     a1e:	e9 85       	ldd	r30, Y+9	; 0x09
     a20:	fa 85       	ldd	r31, Y+10	; 0x0a
     a22:	35 97       	sbiw	r30, 0x05	; 5
     a24:	e0 82       	st	Z, r14
     a26:	e9 85       	ldd	r30, Y+9	; 0x09
     a28:	fa 85       	ldd	r31, Y+10	; 0x0a
     a2a:	36 97       	sbiw	r30, 0x06	; 6
     a2c:	f0 82       	st	Z, r15
     a2e:	87 e1       	ldi	r24, 0x17	; 23
     a30:	8c 9d       	mul	r24, r12
     a32:	f0 01       	movw	r30, r0
     a34:	8d 9d       	mul	r24, r13
     a36:	f0 0d       	add	r31, r0
     a38:	11 24       	eor	r1, r1
     a3a:	ee 5c       	subi	r30, 0xCE	; 206
     a3c:	fd 4f       	sbci	r31, 0xFD	; 253
     a3e:	81 85       	ldd	r24, Z+9	; 0x09
     a40:	92 85       	ldd	r25, Z+10	; 0x0a
     a42:	45 97       	sbiw	r24, 0x15	; 21
     a44:	94 87       	std	Z+12, r25	; 0x0c
     a46:	83 87       	std	Z+11, r24	; 0x0b
     a48:	81 e0       	ldi	r24, 0x01	; 1
     a4a:	90 e0       	ldi	r25, 0x00	; 0
     a4c:	96 8b       	std	Z+22, r25	; 0x16
     a4e:	85 8b       	std	Z+21, r24	; 0x15
     a50:	df 91       	pop	r29
     a52:	cf 91       	pop	r28
     a54:	1f 91       	pop	r17
     a56:	0f 91       	pop	r16
     a58:	ff 90       	pop	r15
     a5a:	ef 90       	pop	r14
     a5c:	df 90       	pop	r13
     a5e:	cf 90       	pop	r12
     a60:	bf 90       	pop	r11
     a62:	af 90       	pop	r10
     a64:	9f 90       	pop	r9
     a66:	08 95       	ret

00000a68 <thread_sleep>:
     a68:	1f 93       	push	r17
     a6a:	cf 93       	push	r28
     a6c:	df 93       	push	r29
     a6e:	c0 91 f1 02 	lds	r28, 0x02F1
     a72:	d0 e0       	ldi	r29, 0x00	; 0
     a74:	47 e1       	ldi	r20, 0x17	; 23
     a76:	4c 9f       	mul	r20, r28
     a78:	f0 01       	movw	r30, r0
     a7a:	4d 9f       	mul	r20, r29
     a7c:	f0 0d       	add	r31, r0
     a7e:	11 24       	eor	r1, r1
     a80:	ee 5c       	subi	r30, 0xCE	; 206
     a82:	fd 4f       	sbci	r31, 0xFD	; 253
     a84:	a3 85       	ldd	r26, Z+11	; 0x0b
     a86:	b4 85       	ldd	r27, Z+12	; 0x0c
     a88:	54 96       	adiw	r26, 0x14	; 20
     a8a:	2c 91       	ld	r18, X
     a8c:	54 97       	sbiw	r26, 0x14	; 20
     a8e:	23 8f       	std	Z+27, r18	; 0x1b
     a90:	53 96       	adiw	r26, 0x13	; 19
     a92:	2c 91       	ld	r18, X
     a94:	24 8f       	std	Z+28, r18	; 0x1c
     a96:	22 e0       	ldi	r18, 0x02	; 2
     a98:	30 e0       	ldi	r19, 0x00	; 0
     a9a:	36 8b       	std	Z+22, r19	; 0x16
     a9c:	25 8b       	std	Z+21, r18	; 0x15
     a9e:	9e 01       	movw	r18, r28
     aa0:	2f 5f       	subi	r18, 0xFF	; 255
     aa2:	3f 4f       	sbci	r19, 0xFF	; 255
     aa4:	42 9f       	mul	r20, r18
     aa6:	f0 01       	movw	r30, r0
     aa8:	43 9f       	mul	r20, r19
     aaa:	f0 0d       	add	r31, r0
     aac:	11 24       	eor	r1, r1
     aae:	ee 5c       	subi	r30, 0xCE	; 206
     ab0:	fd 4f       	sbci	r31, 0xFD	; 253
     ab2:	91 83       	std	Z+1, r25	; 0x01
     ab4:	80 83       	st	Z, r24
     ab6:	80 91 f1 02 	lds	r24, 0x02F1
     aba:	60 91 f0 02 	lds	r22, 0x02F0
     abe:	90 e0       	ldi	r25, 0x00	; 0
     ac0:	01 96       	adiw	r24, 0x01	; 1
     ac2:	70 e0       	ldi	r23, 0x00	; 0
     ac4:	0e 94 7f 0c 	call	0x18fe	; 0x18fe <__divmodhi4>
     ac8:	9c 01       	movw	r18, r24
     aca:	33 27       	eor	r19, r19
     acc:	42 9f       	mul	r20, r18
     ace:	f0 01       	movw	r30, r0
     ad0:	43 9f       	mul	r20, r19
     ad2:	f0 0d       	add	r31, r0
     ad4:	11 24       	eor	r1, r1
     ad6:	ee 5c       	subi	r30, 0xCE	; 206
     ad8:	fd 4f       	sbci	r31, 0xFD	; 253
     ada:	45 89       	ldd	r20, Z+21	; 0x15
     adc:	56 89       	ldd	r21, Z+22	; 0x16
     ade:	41 30       	cpi	r20, 0x01	; 1
     ae0:	51 05       	cpc	r21, r1
     ae2:	b1 f0       	breq	.+44     	; 0xb10 <thread_sleep+0xa8>
     ae4:	17 e1       	ldi	r17, 0x17	; 23
     ae6:	60 91 f0 02 	lds	r22, 0x02F0
     aea:	c9 01       	movw	r24, r18
     aec:	01 96       	adiw	r24, 0x01	; 1
     aee:	70 e0       	ldi	r23, 0x00	; 0
     af0:	0e 94 7f 0c 	call	0x18fe	; 0x18fe <__divmodhi4>
     af4:	9c 01       	movw	r18, r24
     af6:	33 27       	eor	r19, r19
     af8:	12 9f       	mul	r17, r18
     afa:	f0 01       	movw	r30, r0
     afc:	13 9f       	mul	r17, r19
     afe:	f0 0d       	add	r31, r0
     b00:	11 24       	eor	r1, r1
     b02:	ee 5c       	subi	r30, 0xCE	; 206
     b04:	fd 4f       	sbci	r31, 0xFD	; 253
     b06:	45 89       	ldd	r20, Z+21	; 0x15
     b08:	56 89       	ldd	r21, Z+22	; 0x16
     b0a:	41 30       	cpi	r20, 0x01	; 1
     b0c:	51 05       	cpc	r21, r1
     b0e:	59 f7       	brne	.-42     	; 0xae6 <thread_sleep+0x7e>
     b10:	80 93 f1 02 	sts	0x02F1, r24
     b14:	e0 91 f1 02 	lds	r30, 0x02F1
     b18:	87 e1       	ldi	r24, 0x17	; 23
     b1a:	8e 9f       	mul	r24, r30
     b1c:	f0 01       	movw	r30, r0
     b1e:	11 24       	eor	r1, r1
     b20:	ee 5c       	subi	r30, 0xCE	; 206
     b22:	fd 4f       	sbci	r31, 0xFD	; 253
     b24:	16 8a       	std	Z+22, r1	; 0x16
     b26:	15 8a       	std	Z+21, r1	; 0x15
     b28:	90 91 f1 02 	lds	r25, 0x02F1
     b2c:	8c 9f       	mul	r24, r28
     b2e:	b0 01       	movw	r22, r0
     b30:	8d 9f       	mul	r24, r29
     b32:	70 0d       	add	r23, r0
     b34:	11 24       	eor	r1, r1
     b36:	63 5c       	subi	r22, 0xC3	; 195
     b38:	7d 4f       	sbci	r23, 0xFD	; 253
     b3a:	89 9f       	mul	r24, r25
     b3c:	c0 01       	movw	r24, r0
     b3e:	11 24       	eor	r1, r1
     b40:	83 5c       	subi	r24, 0xC3	; 195
     b42:	9d 4f       	sbci	r25, 0xFD	; 253
     b44:	0e 94 e3 02 	call	0x5c6	; 0x5c6 <context_switch>
     b48:	df 91       	pop	r29
     b4a:	cf 91       	pop	r28
     b4c:	1f 91       	pop	r17
     b4e:	08 95       	ret

00000b50 <serial_init>:
     b50:	82 e0       	ldi	r24, 0x02	; 2
     b52:	80 93 c0 00 	sts	0x00C0, r24
     b56:	10 92 c5 00 	sts	0x00C5, r1
     b5a:	80 e1       	ldi	r24, 0x10	; 16
     b5c:	80 93 c4 00 	sts	0x00C4, r24
     b60:	e1 ec       	ldi	r30, 0xC1	; 193
     b62:	f0 e0       	ldi	r31, 0x00	; 0
     b64:	80 81       	ld	r24, Z
     b66:	88 61       	ori	r24, 0x18	; 24
     b68:	80 83       	st	Z, r24
     b6a:	08 95       	ret

00000b6c <byte_available>:
     b6c:	80 91 c0 00 	lds	r24, 0x00C0
     b70:	88 1f       	adc	r24, r24
     b72:	88 27       	eor	r24, r24
     b74:	88 1f       	adc	r24, r24
     b76:	08 95       	ret

00000b78 <read_byte>:
     b78:	80 91 c0 00 	lds	r24, 0x00C0
     b7c:	87 fd       	sbrc	r24, 7
     b7e:	02 c0       	rjmp	.+4      	; 0xb84 <read_byte+0xc>
     b80:	8f ef       	ldi	r24, 0xFF	; 255
     b82:	08 95       	ret
     b84:	80 91 c6 00 	lds	r24, 0x00C6
     b88:	08 95       	ret

00000b8a <write_byte>:
     b8a:	90 91 c1 00 	lds	r25, 0x00C1
     b8e:	95 fd       	sbrc	r25, 5
     b90:	fc cf       	rjmp	.-8      	; 0xb8a <write_byte>
     b92:	90 91 c0 00 	lds	r25, 0x00C0
     b96:	95 ff       	sbrs	r25, 5
     b98:	f8 cf       	rjmp	.-16     	; 0xb8a <write_byte>
     b9a:	80 93 c6 00 	sts	0x00C6, r24
     b9e:	81 e0       	ldi	r24, 0x01	; 1
     ba0:	08 95       	ret

00000ba2 <write_int>:
     ba2:	cf 92       	push	r12
     ba4:	df 92       	push	r13
     ba6:	ef 92       	push	r14
     ba8:	ff 92       	push	r15
     baa:	1f 93       	push	r17
     bac:	cf 93       	push	r28
     bae:	df 93       	push	r29
     bb0:	cd b7       	in	r28, 0x3d	; 61
     bb2:	de b7       	in	r29, 0x3e	; 62
     bb4:	2a 97       	sbiw	r28, 0x0a	; 10
     bb6:	0f b6       	in	r0, 0x3f	; 63
     bb8:	f8 94       	cli
     bba:	de bf       	out	0x3e, r29	; 62
     bbc:	0f be       	out	0x3f, r0	; 63
     bbe:	cd bf       	out	0x3d, r28	; 61
     bc0:	1a e0       	ldi	r17, 0x0A	; 10
     bc2:	2a e0       	ldi	r18, 0x0A	; 10
     bc4:	c2 2e       	mov	r12, r18
     bc6:	d1 2c       	mov	r13, r1
     bc8:	e1 2c       	mov	r14, r1
     bca:	f1 2c       	mov	r15, r1
     bcc:	11 50       	subi	r17, 0x01	; 1
     bce:	a7 01       	movw	r20, r14
     bd0:	96 01       	movw	r18, r12
     bd2:	0e 94 93 0c 	call	0x1926	; 0x1926 <__udivmodsi4>
     bd6:	a0 e3       	ldi	r26, 0x30	; 48
     bd8:	a6 0f       	add	r26, r22
     bda:	e1 e0       	ldi	r30, 0x01	; 1
     bdc:	f0 e0       	ldi	r31, 0x00	; 0
     bde:	ec 0f       	add	r30, r28
     be0:	fd 1f       	adc	r31, r29
     be2:	e1 0f       	add	r30, r17
     be4:	f1 1d       	adc	r31, r1
     be6:	a0 83       	st	Z, r26
     be8:	b9 01       	movw	r22, r18
     bea:	ca 01       	movw	r24, r20
     bec:	61 15       	cp	r22, r1
     bee:	71 05       	cpc	r23, r1
     bf0:	81 05       	cpc	r24, r1
     bf2:	91 05       	cpc	r25, r1
     bf4:	59 f7       	brne	.-42     	; 0xbcc <write_int+0x2a>
     bf6:	1a 30       	cpi	r17, 0x0A	; 10
     bf8:	a8 f4       	brcc	.+42     	; 0xc24 <write_int+0x82>
     bfa:	1f 5f       	subi	r17, 0xFF	; 255
     bfc:	80 91 c1 00 	lds	r24, 0x00C1
     c00:	85 fd       	sbrc	r24, 5
     c02:	fc cf       	rjmp	.-8      	; 0xbfc <write_int+0x5a>
     c04:	80 91 c0 00 	lds	r24, 0x00C0
     c08:	85 ff       	sbrs	r24, 5
     c0a:	f8 cf       	rjmp	.-16     	; 0xbfc <write_int+0x5a>
     c0c:	a0 93 c6 00 	sts	0x00C6, r26
     c10:	1a 30       	cpi	r17, 0x0A	; 10
     c12:	41 f0       	breq	.+16     	; 0xc24 <write_int+0x82>
     c14:	e1 e0       	ldi	r30, 0x01	; 1
     c16:	f0 e0       	ldi	r31, 0x00	; 0
     c18:	ec 0f       	add	r30, r28
     c1a:	fd 1f       	adc	r31, r29
     c1c:	e1 0f       	add	r30, r17
     c1e:	f1 1d       	adc	r31, r1
     c20:	a0 81       	ld	r26, Z
     c22:	eb cf       	rjmp	.-42     	; 0xbfa <write_int+0x58>
     c24:	2a 96       	adiw	r28, 0x0a	; 10
     c26:	0f b6       	in	r0, 0x3f	; 63
     c28:	f8 94       	cli
     c2a:	de bf       	out	0x3e, r29	; 62
     c2c:	0f be       	out	0x3f, r0	; 63
     c2e:	cd bf       	out	0x3d, r28	; 61
     c30:	df 91       	pop	r29
     c32:	cf 91       	pop	r28
     c34:	1f 91       	pop	r17
     c36:	ff 90       	pop	r15
     c38:	ef 90       	pop	r14
     c3a:	df 90       	pop	r13
     c3c:	cf 90       	pop	r12
     c3e:	08 95       	ret

00000c40 <next_line>:
     c40:	80 91 c1 00 	lds	r24, 0x00C1
     c44:	85 fd       	sbrc	r24, 5
     c46:	fc cf       	rjmp	.-8      	; 0xc40 <next_line>
     c48:	80 91 c0 00 	lds	r24, 0x00C0
     c4c:	85 ff       	sbrs	r24, 5
     c4e:	f8 cf       	rjmp	.-16     	; 0xc40 <next_line>
     c50:	8b e1       	ldi	r24, 0x1B	; 27
     c52:	80 93 c6 00 	sts	0x00C6, r24
     c56:	80 91 c1 00 	lds	r24, 0x00C1
     c5a:	85 fd       	sbrc	r24, 5
     c5c:	fc cf       	rjmp	.-8      	; 0xc56 <next_line+0x16>
     c5e:	80 91 c0 00 	lds	r24, 0x00C0
     c62:	85 ff       	sbrs	r24, 5
     c64:	f8 cf       	rjmp	.-16     	; 0xc56 <next_line+0x16>
     c66:	8b e5       	ldi	r24, 0x5B	; 91
     c68:	80 93 c6 00 	sts	0x00C6, r24
     c6c:	80 91 c1 00 	lds	r24, 0x00C1
     c70:	85 fd       	sbrc	r24, 5
     c72:	fc cf       	rjmp	.-8      	; 0xc6c <next_line+0x2c>
     c74:	80 91 c0 00 	lds	r24, 0x00C0
     c78:	85 ff       	sbrs	r24, 5
     c7a:	f8 cf       	rjmp	.-16     	; 0xc6c <next_line+0x2c>
     c7c:	85 e7       	ldi	r24, 0x75	; 117
     c7e:	80 93 c6 00 	sts	0x00C6, r24
     c82:	80 91 c1 00 	lds	r24, 0x00C1
     c86:	85 fd       	sbrc	r24, 5
     c88:	fc cf       	rjmp	.-8      	; 0xc82 <next_line+0x42>
     c8a:	80 91 c0 00 	lds	r24, 0x00C0
     c8e:	85 ff       	sbrs	r24, 5
     c90:	f8 cf       	rjmp	.-16     	; 0xc82 <next_line+0x42>
     c92:	8b e1       	ldi	r24, 0x1B	; 27
     c94:	80 93 c6 00 	sts	0x00C6, r24
     c98:	80 91 c1 00 	lds	r24, 0x00C1
     c9c:	85 fd       	sbrc	r24, 5
     c9e:	fc cf       	rjmp	.-8      	; 0xc98 <next_line+0x58>
     ca0:	80 91 c0 00 	lds	r24, 0x00C0
     ca4:	85 ff       	sbrs	r24, 5
     ca6:	f8 cf       	rjmp	.-16     	; 0xc98 <next_line+0x58>
     ca8:	8b e5       	ldi	r24, 0x5B	; 91
     caa:	80 93 c6 00 	sts	0x00C6, r24
     cae:	80 91 c1 00 	lds	r24, 0x00C1
     cb2:	85 fd       	sbrc	r24, 5
     cb4:	fc cf       	rjmp	.-8      	; 0xcae <next_line+0x6e>
     cb6:	80 91 c0 00 	lds	r24, 0x00C0
     cba:	85 ff       	sbrs	r24, 5
     cbc:	f8 cf       	rjmp	.-16     	; 0xcae <next_line+0x6e>
     cbe:	82 e4       	ldi	r24, 0x42	; 66
     cc0:	80 93 c6 00 	sts	0x00C6, r24
     cc4:	08 95       	ret

00000cc6 <print_string>:
     cc6:	20 91 c1 00 	lds	r18, 0x00C1
     cca:	25 fd       	sbrc	r18, 5
     ccc:	fc cf       	rjmp	.-8      	; 0xcc6 <print_string>
     cce:	20 91 c0 00 	lds	r18, 0x00C0
     cd2:	25 ff       	sbrs	r18, 5
     cd4:	f8 cf       	rjmp	.-16     	; 0xcc6 <print_string>
     cd6:	2b e1       	ldi	r18, 0x1B	; 27
     cd8:	20 93 c6 00 	sts	0x00C6, r18
     cdc:	20 91 c1 00 	lds	r18, 0x00C1
     ce0:	25 fd       	sbrc	r18, 5
     ce2:	fc cf       	rjmp	.-8      	; 0xcdc <print_string+0x16>
     ce4:	20 91 c0 00 	lds	r18, 0x00C0
     ce8:	25 ff       	sbrs	r18, 5
     cea:	f8 cf       	rjmp	.-16     	; 0xcdc <print_string+0x16>
     cec:	2b e5       	ldi	r18, 0x5B	; 91
     cee:	20 93 c6 00 	sts	0x00C6, r18
     cf2:	20 91 c1 00 	lds	r18, 0x00C1
     cf6:	25 fd       	sbrc	r18, 5
     cf8:	fc cf       	rjmp	.-8      	; 0xcf2 <print_string+0x2c>
     cfa:	20 91 c0 00 	lds	r18, 0x00C0
     cfe:	25 ff       	sbrs	r18, 5
     d00:	f8 cf       	rjmp	.-16     	; 0xcf2 <print_string+0x2c>
     d02:	23 e7       	ldi	r18, 0x73	; 115
     d04:	20 93 c6 00 	sts	0x00C6, r18
     d08:	fc 01       	movw	r30, r24
     d0a:	20 81       	ld	r18, Z
     d0c:	22 23       	and	r18, r18
     d0e:	71 f0       	breq	.+28     	; 0xd2c <print_string+0x66>
     d10:	31 96       	adiw	r30, 0x01	; 1
     d12:	80 91 c1 00 	lds	r24, 0x00C1
     d16:	85 fd       	sbrc	r24, 5
     d18:	fc cf       	rjmp	.-8      	; 0xd12 <print_string+0x4c>
     d1a:	80 91 c0 00 	lds	r24, 0x00C0
     d1e:	85 ff       	sbrs	r24, 5
     d20:	f8 cf       	rjmp	.-16     	; 0xd12 <print_string+0x4c>
     d22:	20 93 c6 00 	sts	0x00C6, r18
     d26:	21 91       	ld	r18, Z+
     d28:	21 11       	cpse	r18, r1
     d2a:	f3 cf       	rjmp	.-26     	; 0xd12 <print_string+0x4c>
     d2c:	08 95       	ret

00000d2e <print_int>:
     d2e:	ff 92       	push	r15
     d30:	0f 93       	push	r16
     d32:	1f 93       	push	r17
     d34:	cf 93       	push	r28
     d36:	df 93       	push	r29
     d38:	00 d0       	rcall	.+0      	; 0xd3a <print_int+0xc>
     d3a:	00 d0       	rcall	.+0      	; 0xd3c <print_int+0xe>
     d3c:	1f 92       	push	r1
     d3e:	cd b7       	in	r28, 0x3d	; 61
     d40:	de b7       	in	r29, 0x3e	; 62
     d42:	ac 01       	movw	r20, r24
     d44:	8e 01       	movw	r16, r28
     d46:	0f 5f       	subi	r16, 0xFF	; 255
     d48:	1f 4f       	sbci	r17, 0xFF	; 255
     d4a:	85 e0       	ldi	r24, 0x05	; 5
     d4c:	f8 01       	movw	r30, r16
     d4e:	11 92       	st	Z+, r1
     d50:	8a 95       	dec	r24
     d52:	e9 f7       	brne	.-6      	; 0xd4e <print_int+0x20>
     d54:	b5 e0       	ldi	r27, 0x05	; 5
     d56:	fb 2e       	mov	r15, r27
     d58:	fa 94       	dec	r15
     d5a:	f8 01       	movw	r30, r16
     d5c:	ef 0d       	add	r30, r15
     d5e:	f1 1d       	adc	r31, r1
     d60:	9a 01       	movw	r18, r20
     d62:	ad ec       	ldi	r26, 0xCD	; 205
     d64:	bc ec       	ldi	r27, 0xCC	; 204
     d66:	0e 94 b5 0c 	call	0x196a	; 0x196a <__umulhisi3>
     d6a:	96 95       	lsr	r25
     d6c:	87 95       	ror	r24
     d6e:	96 95       	lsr	r25
     d70:	87 95       	ror	r24
     d72:	96 95       	lsr	r25
     d74:	87 95       	ror	r24
     d76:	9c 01       	movw	r18, r24
     d78:	22 0f       	add	r18, r18
     d7a:	33 1f       	adc	r19, r19
     d7c:	bc 01       	movw	r22, r24
     d7e:	66 0f       	add	r22, r22
     d80:	77 1f       	adc	r23, r23
     d82:	66 0f       	add	r22, r22
     d84:	77 1f       	adc	r23, r23
     d86:	66 0f       	add	r22, r22
     d88:	77 1f       	adc	r23, r23
     d8a:	26 0f       	add	r18, r22
     d8c:	37 1f       	adc	r19, r23
     d8e:	42 1b       	sub	r20, r18
     d90:	53 0b       	sbc	r21, r19
     d92:	40 5d       	subi	r20, 0xD0	; 208
     d94:	40 83       	st	Z, r20
     d96:	ac 01       	movw	r20, r24
     d98:	00 97       	sbiw	r24, 0x00	; 0
     d9a:	f1 f6       	brne	.-68     	; 0xd58 <print_int+0x2a>
     d9c:	f8 01       	movw	r30, r16
     d9e:	ce 01       	movw	r24, r28
     da0:	06 96       	adiw	r24, 0x06	; 6
     da2:	40 e3       	ldi	r20, 0x30	; 48
     da4:	31 91       	ld	r19, Z+
     da6:	31 11       	cpse	r19, r1
     da8:	1c c0       	rjmp	.+56     	; 0xde2 <print_int+0xb4>
     daa:	20 91 c1 00 	lds	r18, 0x00C1
     dae:	25 fd       	sbrc	r18, 5
     db0:	fc cf       	rjmp	.-8      	; 0xdaa <print_int+0x7c>
     db2:	20 91 c0 00 	lds	r18, 0x00C0
     db6:	25 ff       	sbrs	r18, 5
     db8:	f8 cf       	rjmp	.-16     	; 0xdaa <print_int+0x7c>
     dba:	40 93 c6 00 	sts	0x00C6, r20
     dbe:	e8 17       	cp	r30, r24
     dc0:	f9 07       	cpc	r31, r25
     dc2:	81 f7       	brne	.-32     	; 0xda4 <print_int+0x76>
     dc4:	0f 90       	pop	r0
     dc6:	0f 90       	pop	r0
     dc8:	0f 90       	pop	r0
     dca:	0f 90       	pop	r0
     dcc:	0f 90       	pop	r0
     dce:	df 91       	pop	r29
     dd0:	cf 91       	pop	r28
     dd2:	1f 91       	pop	r17
     dd4:	0f 91       	pop	r16
     dd6:	ff 90       	pop	r15
     dd8:	08 95       	ret
     dda:	20 91 c0 00 	lds	r18, 0x00C0
     dde:	25 fd       	sbrc	r18, 5
     de0:	09 c0       	rjmp	.+18     	; 0xdf4 <print_int+0xc6>
     de2:	20 91 c1 00 	lds	r18, 0x00C1
     de6:	25 ff       	sbrs	r18, 5
     de8:	f8 cf       	rjmp	.-16     	; 0xdda <print_int+0xac>
     dea:	20 91 c1 00 	lds	r18, 0x00C1
     dee:	25 fd       	sbrc	r18, 5
     df0:	f8 cf       	rjmp	.-16     	; 0xde2 <print_int+0xb4>
     df2:	f3 cf       	rjmp	.-26     	; 0xdda <print_int+0xac>
     df4:	30 93 c6 00 	sts	0x00C6, r19
     df8:	e2 cf       	rjmp	.-60     	; 0xdbe <print_int+0x90>

00000dfa <print_int32>:
     dfa:	8f 92       	push	r8
     dfc:	9f 92       	push	r9
     dfe:	af 92       	push	r10
     e00:	bf 92       	push	r11
     e02:	df 92       	push	r13
     e04:	ef 92       	push	r14
     e06:	ff 92       	push	r15
     e08:	0f 93       	push	r16
     e0a:	1f 93       	push	r17
     e0c:	cf 93       	push	r28
     e0e:	df 93       	push	r29
     e10:	cd b7       	in	r28, 0x3d	; 61
     e12:	de b7       	in	r29, 0x3e	; 62
     e14:	2a 97       	sbiw	r28, 0x0a	; 10
     e16:	0f b6       	in	r0, 0x3f	; 63
     e18:	f8 94       	cli
     e1a:	de bf       	out	0x3e, r29	; 62
     e1c:	0f be       	out	0x3f, r0	; 63
     e1e:	cd bf       	out	0x3d, r28	; 61
     e20:	9e 01       	movw	r18, r28
     e22:	2f 5f       	subi	r18, 0xFF	; 255
     e24:	3f 4f       	sbci	r19, 0xFF	; 255
     e26:	79 01       	movw	r14, r18
     e28:	2a e0       	ldi	r18, 0x0A	; 10
     e2a:	f7 01       	movw	r30, r14
     e2c:	11 92       	st	Z+, r1
     e2e:	2a 95       	dec	r18
     e30:	e9 f7       	brne	.-6      	; 0xe2c <print_int32+0x32>
     e32:	1a e0       	ldi	r17, 0x0A	; 10
     e34:	d1 2e       	mov	r13, r17
     e36:	0a e0       	ldi	r16, 0x0A	; 10
     e38:	80 2e       	mov	r8, r16
     e3a:	91 2c       	mov	r9, r1
     e3c:	a1 2c       	mov	r10, r1
     e3e:	b1 2c       	mov	r11, r1
     e40:	da 94       	dec	r13
     e42:	87 01       	movw	r16, r14
     e44:	0d 0d       	add	r16, r13
     e46:	11 1d       	adc	r17, r1
     e48:	a5 01       	movw	r20, r10
     e4a:	94 01       	movw	r18, r8
     e4c:	0e 94 93 0c 	call	0x1926	; 0x1926 <__udivmodsi4>
     e50:	60 5d       	subi	r22, 0xD0	; 208
     e52:	f8 01       	movw	r30, r16
     e54:	60 83       	st	Z, r22
     e56:	b9 01       	movw	r22, r18
     e58:	ca 01       	movw	r24, r20
     e5a:	61 15       	cp	r22, r1
     e5c:	71 05       	cpc	r23, r1
     e5e:	81 05       	cpc	r24, r1
     e60:	91 05       	cpc	r25, r1
     e62:	71 f7       	brne	.-36     	; 0xe40 <print_int32+0x46>
     e64:	f7 01       	movw	r30, r14
     e66:	ce 01       	movw	r24, r28
     e68:	0b 96       	adiw	r24, 0x0b	; 11
     e6a:	40 e3       	ldi	r20, 0x30	; 48
     e6c:	31 91       	ld	r19, Z+
     e6e:	31 11       	cpse	r19, r1
     e70:	23 c0       	rjmp	.+70     	; 0xeb8 <print_int32+0xbe>
     e72:	20 91 c1 00 	lds	r18, 0x00C1
     e76:	25 fd       	sbrc	r18, 5
     e78:	fc cf       	rjmp	.-8      	; 0xe72 <print_int32+0x78>
     e7a:	20 91 c0 00 	lds	r18, 0x00C0
     e7e:	25 ff       	sbrs	r18, 5
     e80:	f8 cf       	rjmp	.-16     	; 0xe72 <print_int32+0x78>
     e82:	40 93 c6 00 	sts	0x00C6, r20
     e86:	e8 17       	cp	r30, r24
     e88:	f9 07       	cpc	r31, r25
     e8a:	81 f7       	brne	.-32     	; 0xe6c <print_int32+0x72>
     e8c:	2a 96       	adiw	r28, 0x0a	; 10
     e8e:	0f b6       	in	r0, 0x3f	; 63
     e90:	f8 94       	cli
     e92:	de bf       	out	0x3e, r29	; 62
     e94:	0f be       	out	0x3f, r0	; 63
     e96:	cd bf       	out	0x3d, r28	; 61
     e98:	df 91       	pop	r29
     e9a:	cf 91       	pop	r28
     e9c:	1f 91       	pop	r17
     e9e:	0f 91       	pop	r16
     ea0:	ff 90       	pop	r15
     ea2:	ef 90       	pop	r14
     ea4:	df 90       	pop	r13
     ea6:	bf 90       	pop	r11
     ea8:	af 90       	pop	r10
     eaa:	9f 90       	pop	r9
     eac:	8f 90       	pop	r8
     eae:	08 95       	ret
     eb0:	20 91 c0 00 	lds	r18, 0x00C0
     eb4:	25 fd       	sbrc	r18, 5
     eb6:	09 c0       	rjmp	.+18     	; 0xeca <print_int32+0xd0>
     eb8:	20 91 c1 00 	lds	r18, 0x00C1
     ebc:	25 ff       	sbrs	r18, 5
     ebe:	f8 cf       	rjmp	.-16     	; 0xeb0 <print_int32+0xb6>
     ec0:	20 91 c1 00 	lds	r18, 0x00C1
     ec4:	25 fd       	sbrc	r18, 5
     ec6:	f8 cf       	rjmp	.-16     	; 0xeb8 <print_int32+0xbe>
     ec8:	f3 cf       	rjmp	.-26     	; 0xeb0 <print_int32+0xb6>
     eca:	30 93 c6 00 	sts	0x00C6, r19
     ece:	db cf       	rjmp	.-74     	; 0xe86 <print_int32+0x8c>

00000ed0 <print_hex>:
     ed0:	cf 93       	push	r28
     ed2:	df 93       	push	r29
     ed4:	00 d0       	rcall	.+0      	; 0xed6 <print_hex+0x6>
     ed6:	00 d0       	rcall	.+0      	; 0xed8 <print_hex+0x8>
     ed8:	cd b7       	in	r28, 0x3d	; 61
     eda:	de b7       	in	r29, 0x3e	; 62
     edc:	19 82       	std	Y+1, r1	; 0x01
     ede:	1a 82       	std	Y+2, r1	; 0x02
     ee0:	1b 82       	std	Y+3, r1	; 0x03
     ee2:	1c 82       	std	Y+4, r1	; 0x04
     ee4:	43 e0       	ldi	r20, 0x03	; 3
     ee6:	0b c0       	rjmp	.+22     	; 0xefe <print_hex+0x2e>
     ee8:	29 5c       	subi	r18, 0xC9	; 201
     eea:	20 83       	st	Z, r18
     eec:	92 95       	swap	r25
     eee:	82 95       	swap	r24
     ef0:	8f 70       	andi	r24, 0x0F	; 15
     ef2:	89 27       	eor	r24, r25
     ef4:	9f 70       	andi	r25, 0x0F	; 15
     ef6:	89 27       	eor	r24, r25
     ef8:	41 50       	subi	r20, 0x01	; 1
     efa:	00 97       	sbiw	r24, 0x00	; 0
     efc:	99 f0       	breq	.+38     	; 0xf24 <print_hex+0x54>
     efe:	9c 01       	movw	r18, r24
     f00:	2f 70       	andi	r18, 0x0F	; 15
     f02:	33 27       	eor	r19, r19
     f04:	e1 e0       	ldi	r30, 0x01	; 1
     f06:	f0 e0       	ldi	r31, 0x00	; 0
     f08:	ec 0f       	add	r30, r28
     f0a:	fd 1f       	adc	r31, r29
     f0c:	e4 0f       	add	r30, r20
     f0e:	f1 1d       	adc	r31, r1
     f10:	2a 30       	cpi	r18, 0x0A	; 10
     f12:	31 05       	cpc	r19, r1
     f14:	48 f7       	brcc	.-46     	; 0xee8 <print_hex+0x18>
     f16:	20 5d       	subi	r18, 0xD0	; 208
     f18:	20 83       	st	Z, r18
     f1a:	e8 cf       	rjmp	.-48     	; 0xeec <print_hex+0x1c>
     f1c:	80 91 c0 00 	lds	r24, 0x00C0
     f20:	85 fd       	sbrc	r24, 5
     f22:	09 c0       	rjmp	.+18     	; 0xf36 <print_hex+0x66>
     f24:	80 91 c1 00 	lds	r24, 0x00C1
     f28:	85 ff       	sbrs	r24, 5
     f2a:	f8 cf       	rjmp	.-16     	; 0xf1c <print_hex+0x4c>
     f2c:	80 91 c1 00 	lds	r24, 0x00C1
     f30:	85 fd       	sbrc	r24, 5
     f32:	f8 cf       	rjmp	.-16     	; 0xf24 <print_hex+0x54>
     f34:	f3 cf       	rjmp	.-26     	; 0xf1c <print_hex+0x4c>
     f36:	80 e3       	ldi	r24, 0x30	; 48
     f38:	80 93 c6 00 	sts	0x00C6, r24
     f3c:	80 91 c1 00 	lds	r24, 0x00C1
     f40:	85 fd       	sbrc	r24, 5
     f42:	fc cf       	rjmp	.-8      	; 0xf3c <print_hex+0x6c>
     f44:	80 91 c0 00 	lds	r24, 0x00C0
     f48:	85 ff       	sbrs	r24, 5
     f4a:	f8 cf       	rjmp	.-16     	; 0xf3c <print_hex+0x6c>
     f4c:	88 e7       	ldi	r24, 0x78	; 120
     f4e:	80 93 c6 00 	sts	0x00C6, r24
     f52:	fe 01       	movw	r30, r28
     f54:	31 96       	adiw	r30, 0x01	; 1
     f56:	ce 01       	movw	r24, r28
     f58:	05 96       	adiw	r24, 0x05	; 5
     f5a:	40 e3       	ldi	r20, 0x30	; 48
     f5c:	31 91       	ld	r19, Z+
     f5e:	31 11       	cpse	r19, r1
     f60:	18 c0       	rjmp	.+48     	; 0xf92 <print_hex+0xc2>
     f62:	20 91 c1 00 	lds	r18, 0x00C1
     f66:	25 fd       	sbrc	r18, 5
     f68:	fc cf       	rjmp	.-8      	; 0xf62 <print_hex+0x92>
     f6a:	20 91 c0 00 	lds	r18, 0x00C0
     f6e:	25 ff       	sbrs	r18, 5
     f70:	f8 cf       	rjmp	.-16     	; 0xf62 <print_hex+0x92>
     f72:	40 93 c6 00 	sts	0x00C6, r20
     f76:	e8 17       	cp	r30, r24
     f78:	f9 07       	cpc	r31, r25
     f7a:	81 f7       	brne	.-32     	; 0xf5c <print_hex+0x8c>
     f7c:	0f 90       	pop	r0
     f7e:	0f 90       	pop	r0
     f80:	0f 90       	pop	r0
     f82:	0f 90       	pop	r0
     f84:	df 91       	pop	r29
     f86:	cf 91       	pop	r28
     f88:	08 95       	ret
     f8a:	20 91 c0 00 	lds	r18, 0x00C0
     f8e:	25 fd       	sbrc	r18, 5
     f90:	09 c0       	rjmp	.+18     	; 0xfa4 <print_hex+0xd4>
     f92:	20 91 c1 00 	lds	r18, 0x00C1
     f96:	25 ff       	sbrs	r18, 5
     f98:	f8 cf       	rjmp	.-16     	; 0xf8a <print_hex+0xba>
     f9a:	20 91 c1 00 	lds	r18, 0x00C1
     f9e:	25 fd       	sbrc	r18, 5
     fa0:	f8 cf       	rjmp	.-16     	; 0xf92 <print_hex+0xc2>
     fa2:	f3 cf       	rjmp	.-26     	; 0xf8a <print_hex+0xba>
     fa4:	30 93 c6 00 	sts	0x00C6, r19
     fa8:	e6 cf       	rjmp	.-52     	; 0xf76 <print_hex+0xa6>

00000faa <print_hex32>:
     faa:	cf 93       	push	r28
     fac:	df 93       	push	r29
     fae:	cd b7       	in	r28, 0x3d	; 61
     fb0:	de b7       	in	r29, 0x3e	; 62
     fb2:	2a 97       	sbiw	r28, 0x0a	; 10
     fb4:	0f b6       	in	r0, 0x3f	; 63
     fb6:	f8 94       	cli
     fb8:	de bf       	out	0x3e, r29	; 62
     fba:	0f be       	out	0x3f, r0	; 63
     fbc:	cd bf       	out	0x3d, r28	; 61
     fbe:	a9 e0       	ldi	r26, 0x09	; 9
     fc0:	11 c0       	rjmp	.+34     	; 0xfe4 <print_hex32+0x3a>
     fc2:	49 5c       	subi	r20, 0xC9	; 201
     fc4:	40 83       	st	Z, r20
     fc6:	44 e0       	ldi	r20, 0x04	; 4
     fc8:	96 95       	lsr	r25
     fca:	87 95       	ror	r24
     fcc:	77 95       	ror	r23
     fce:	67 95       	ror	r22
     fd0:	4a 95       	dec	r20
     fd2:	d1 f7       	brne	.-12     	; 0xfc8 <print_hex32+0x1e>
     fd4:	4f ef       	ldi	r20, 0xFF	; 255
     fd6:	4a 0f       	add	r20, r26
     fd8:	61 15       	cp	r22, r1
     fda:	71 05       	cpc	r23, r1
     fdc:	81 05       	cpc	r24, r1
     fde:	91 05       	cpc	r25, r1
     fe0:	b1 f0       	breq	.+44     	; 0x100e <print_hex32+0x64>
     fe2:	a4 2f       	mov	r26, r20
     fe4:	ab 01       	movw	r20, r22
     fe6:	4f 70       	andi	r20, 0x0F	; 15
     fe8:	55 27       	eor	r21, r21
     fea:	2a 2f       	mov	r18, r26
     fec:	30 e0       	ldi	r19, 0x00	; 0
     fee:	e1 e0       	ldi	r30, 0x01	; 1
     ff0:	f0 e0       	ldi	r31, 0x00	; 0
     ff2:	ec 0f       	add	r30, r28
     ff4:	fd 1f       	adc	r31, r29
     ff6:	e2 0f       	add	r30, r18
     ff8:	f3 1f       	adc	r31, r19
     ffa:	4a 30       	cpi	r20, 0x0A	; 10
     ffc:	51 05       	cpc	r21, r1
     ffe:	08 f7       	brcc	.-62     	; 0xfc2 <print_hex32+0x18>
    1000:	40 5d       	subi	r20, 0xD0	; 208
    1002:	40 83       	st	Z, r20
    1004:	e0 cf       	rjmp	.-64     	; 0xfc6 <print_hex32+0x1c>
    1006:	80 91 c0 00 	lds	r24, 0x00C0
    100a:	85 fd       	sbrc	r24, 5
    100c:	09 c0       	rjmp	.+18     	; 0x1020 <print_hex32+0x76>
    100e:	80 91 c1 00 	lds	r24, 0x00C1
    1012:	85 ff       	sbrs	r24, 5
    1014:	f8 cf       	rjmp	.-16     	; 0x1006 <print_hex32+0x5c>
    1016:	80 91 c1 00 	lds	r24, 0x00C1
    101a:	85 fd       	sbrc	r24, 5
    101c:	f8 cf       	rjmp	.-16     	; 0x100e <print_hex32+0x64>
    101e:	f3 cf       	rjmp	.-26     	; 0x1006 <print_hex32+0x5c>
    1020:	80 e3       	ldi	r24, 0x30	; 48
    1022:	80 93 c6 00 	sts	0x00C6, r24
    1026:	80 91 c1 00 	lds	r24, 0x00C1
    102a:	85 fd       	sbrc	r24, 5
    102c:	fc cf       	rjmp	.-8      	; 0x1026 <print_hex32+0x7c>
    102e:	80 91 c0 00 	lds	r24, 0x00C0
    1032:	85 ff       	sbrs	r24, 5
    1034:	f8 cf       	rjmp	.-16     	; 0x1026 <print_hex32+0x7c>
    1036:	88 e7       	ldi	r24, 0x78	; 120
    1038:	80 93 c6 00 	sts	0x00C6, r24
    103c:	aa 30       	cpi	r26, 0x0A	; 10
    103e:	b8 f4       	brcc	.+46     	; 0x106e <print_hex32+0xc4>
    1040:	af 5f       	subi	r26, 0xFF	; 255
    1042:	e1 e0       	ldi	r30, 0x01	; 1
    1044:	f0 e0       	ldi	r31, 0x00	; 0
    1046:	ec 0f       	add	r30, r28
    1048:	fd 1f       	adc	r31, r29
    104a:	e2 0f       	add	r30, r18
    104c:	f3 1f       	adc	r31, r19
    104e:	90 81       	ld	r25, Z
    1050:	80 91 c1 00 	lds	r24, 0x00C1
    1054:	85 fd       	sbrc	r24, 5
    1056:	fc cf       	rjmp	.-8      	; 0x1050 <print_hex32+0xa6>
    1058:	80 91 c0 00 	lds	r24, 0x00C0
    105c:	85 ff       	sbrs	r24, 5
    105e:	f8 cf       	rjmp	.-16     	; 0x1050 <print_hex32+0xa6>
    1060:	90 93 c6 00 	sts	0x00C6, r25
    1064:	aa 30       	cpi	r26, 0x0A	; 10
    1066:	19 f0       	breq	.+6      	; 0x106e <print_hex32+0xc4>
    1068:	2a 2f       	mov	r18, r26
    106a:	30 e0       	ldi	r19, 0x00	; 0
    106c:	e9 cf       	rjmp	.-46     	; 0x1040 <print_hex32+0x96>
    106e:	2a 96       	adiw	r28, 0x0a	; 10
    1070:	0f b6       	in	r0, 0x3f	; 63
    1072:	f8 94       	cli
    1074:	de bf       	out	0x3e, r29	; 62
    1076:	0f be       	out	0x3f, r0	; 63
    1078:	cd bf       	out	0x3d, r28	; 61
    107a:	df 91       	pop	r29
    107c:	cf 91       	pop	r28
    107e:	08 95       	ret

00001080 <set_cursor>:
    1080:	cf 93       	push	r28
    1082:	df 93       	push	r29
    1084:	cd b7       	in	r28, 0x3d	; 61
    1086:	de b7       	in	r29, 0x3e	; 62
    1088:	2a 97       	sbiw	r28, 0x0a	; 10
    108a:	0f b6       	in	r0, 0x3f	; 63
    108c:	f8 94       	cli
    108e:	de bf       	out	0x3e, r29	; 62
    1090:	0f be       	out	0x3f, r0	; 63
    1092:	cd bf       	out	0x3d, r28	; 61
    1094:	90 91 c1 00 	lds	r25, 0x00C1
    1098:	95 fd       	sbrc	r25, 5
    109a:	fc cf       	rjmp	.-8      	; 0x1094 <set_cursor+0x14>
    109c:	90 91 c0 00 	lds	r25, 0x00C0
    10a0:	95 ff       	sbrs	r25, 5
    10a2:	f8 cf       	rjmp	.-16     	; 0x1094 <set_cursor+0x14>
    10a4:	9b e1       	ldi	r25, 0x1B	; 27
    10a6:	90 93 c6 00 	sts	0x00C6, r25
    10aa:	90 91 c1 00 	lds	r25, 0x00C1
    10ae:	95 fd       	sbrc	r25, 5
    10b0:	fc cf       	rjmp	.-8      	; 0x10aa <set_cursor+0x2a>
    10b2:	90 91 c0 00 	lds	r25, 0x00C0
    10b6:	95 ff       	sbrs	r25, 5
    10b8:	f8 cf       	rjmp	.-16     	; 0x10aa <set_cursor+0x2a>
    10ba:	9b e5       	ldi	r25, 0x5B	; 91
    10bc:	90 93 c6 00 	sts	0x00C6, r25
    10c0:	9a e0       	ldi	r25, 0x0A	; 10
    10c2:	4d ec       	ldi	r20, 0xCD	; 205
    10c4:	91 50       	subi	r25, 0x01	; 1
    10c6:	84 9f       	mul	r24, r20
    10c8:	21 2d       	mov	r18, r1
    10ca:	11 24       	eor	r1, r1
    10cc:	26 95       	lsr	r18
    10ce:	26 95       	lsr	r18
    10d0:	26 95       	lsr	r18
    10d2:	38 2f       	mov	r19, r24
    10d4:	5a e0       	ldi	r21, 0x0A	; 10
    10d6:	25 9f       	mul	r18, r21
    10d8:	30 19       	sub	r19, r0
    10da:	11 24       	eor	r1, r1
    10dc:	30 5d       	subi	r19, 0xD0	; 208
    10de:	e1 e0       	ldi	r30, 0x01	; 1
    10e0:	f0 e0       	ldi	r31, 0x00	; 0
    10e2:	ec 0f       	add	r30, r28
    10e4:	fd 1f       	adc	r31, r29
    10e6:	e9 0f       	add	r30, r25
    10e8:	f1 1d       	adc	r31, r1
    10ea:	30 83       	st	Z, r19
    10ec:	82 2f       	mov	r24, r18
    10ee:	21 11       	cpse	r18, r1
    10f0:	e9 cf       	rjmp	.-46     	; 0x10c4 <set_cursor+0x44>
    10f2:	9a 30       	cpi	r25, 0x0A	; 10
    10f4:	c8 f4       	brcc	.+50     	; 0x1128 <set_cursor+0xa8>
    10f6:	9f 5f       	subi	r25, 0xFF	; 255
    10f8:	80 91 c1 00 	lds	r24, 0x00C1
    10fc:	85 fd       	sbrc	r24, 5
    10fe:	fc cf       	rjmp	.-8      	; 0x10f8 <set_cursor+0x78>
    1100:	80 91 c0 00 	lds	r24, 0x00C0
    1104:	85 ff       	sbrs	r24, 5
    1106:	f8 cf       	rjmp	.-16     	; 0x10f8 <set_cursor+0x78>
    1108:	30 93 c6 00 	sts	0x00C6, r19
    110c:	9a 30       	cpi	r25, 0x0A	; 10
    110e:	61 f0       	breq	.+24     	; 0x1128 <set_cursor+0xa8>
    1110:	e1 e0       	ldi	r30, 0x01	; 1
    1112:	f0 e0       	ldi	r31, 0x00	; 0
    1114:	ec 0f       	add	r30, r28
    1116:	fd 1f       	adc	r31, r29
    1118:	e9 0f       	add	r30, r25
    111a:	f1 1d       	adc	r31, r1
    111c:	30 81       	ld	r19, Z
    111e:	eb cf       	rjmp	.-42     	; 0x10f6 <set_cursor+0x76>
    1120:	80 91 c0 00 	lds	r24, 0x00C0
    1124:	85 fd       	sbrc	r24, 5
    1126:	09 c0       	rjmp	.+18     	; 0x113a <set_cursor+0xba>
    1128:	80 91 c1 00 	lds	r24, 0x00C1
    112c:	85 ff       	sbrs	r24, 5
    112e:	f8 cf       	rjmp	.-16     	; 0x1120 <set_cursor+0xa0>
    1130:	80 91 c1 00 	lds	r24, 0x00C1
    1134:	85 fd       	sbrc	r24, 5
    1136:	f8 cf       	rjmp	.-16     	; 0x1128 <set_cursor+0xa8>
    1138:	f3 cf       	rjmp	.-26     	; 0x1120 <set_cursor+0xa0>
    113a:	8b e3       	ldi	r24, 0x3B	; 59
    113c:	80 93 c6 00 	sts	0x00C6, r24
    1140:	9a e0       	ldi	r25, 0x0A	; 10
    1142:	3d ec       	ldi	r19, 0xCD	; 205
    1144:	91 50       	subi	r25, 0x01	; 1
    1146:	63 9f       	mul	r22, r19
    1148:	81 2d       	mov	r24, r1
    114a:	11 24       	eor	r1, r1
    114c:	86 95       	lsr	r24
    114e:	86 95       	lsr	r24
    1150:	86 95       	lsr	r24
    1152:	26 2f       	mov	r18, r22
    1154:	4a e0       	ldi	r20, 0x0A	; 10
    1156:	84 9f       	mul	r24, r20
    1158:	20 19       	sub	r18, r0
    115a:	11 24       	eor	r1, r1
    115c:	20 5d       	subi	r18, 0xD0	; 208
    115e:	e1 e0       	ldi	r30, 0x01	; 1
    1160:	f0 e0       	ldi	r31, 0x00	; 0
    1162:	ec 0f       	add	r30, r28
    1164:	fd 1f       	adc	r31, r29
    1166:	e9 0f       	add	r30, r25
    1168:	f1 1d       	adc	r31, r1
    116a:	20 83       	st	Z, r18
    116c:	68 2f       	mov	r22, r24
    116e:	81 11       	cpse	r24, r1
    1170:	e9 cf       	rjmp	.-46     	; 0x1144 <set_cursor+0xc4>
    1172:	9a 30       	cpi	r25, 0x0A	; 10
    1174:	c8 f4       	brcc	.+50     	; 0x11a8 <set_cursor+0x128>
    1176:	9f 5f       	subi	r25, 0xFF	; 255
    1178:	80 91 c1 00 	lds	r24, 0x00C1
    117c:	85 fd       	sbrc	r24, 5
    117e:	fc cf       	rjmp	.-8      	; 0x1178 <set_cursor+0xf8>
    1180:	80 91 c0 00 	lds	r24, 0x00C0
    1184:	85 ff       	sbrs	r24, 5
    1186:	f8 cf       	rjmp	.-16     	; 0x1178 <set_cursor+0xf8>
    1188:	20 93 c6 00 	sts	0x00C6, r18
    118c:	9a 30       	cpi	r25, 0x0A	; 10
    118e:	61 f0       	breq	.+24     	; 0x11a8 <set_cursor+0x128>
    1190:	e1 e0       	ldi	r30, 0x01	; 1
    1192:	f0 e0       	ldi	r31, 0x00	; 0
    1194:	ec 0f       	add	r30, r28
    1196:	fd 1f       	adc	r31, r29
    1198:	e9 0f       	add	r30, r25
    119a:	f1 1d       	adc	r31, r1
    119c:	20 81       	ld	r18, Z
    119e:	eb cf       	rjmp	.-42     	; 0x1176 <set_cursor+0xf6>
    11a0:	80 91 c0 00 	lds	r24, 0x00C0
    11a4:	85 fd       	sbrc	r24, 5
    11a6:	09 c0       	rjmp	.+18     	; 0x11ba <set_cursor+0x13a>
    11a8:	80 91 c1 00 	lds	r24, 0x00C1
    11ac:	85 ff       	sbrs	r24, 5
    11ae:	f8 cf       	rjmp	.-16     	; 0x11a0 <set_cursor+0x120>
    11b0:	80 91 c1 00 	lds	r24, 0x00C1
    11b4:	85 fd       	sbrc	r24, 5
    11b6:	f8 cf       	rjmp	.-16     	; 0x11a8 <set_cursor+0x128>
    11b8:	f3 cf       	rjmp	.-26     	; 0x11a0 <set_cursor+0x120>
    11ba:	88 e4       	ldi	r24, 0x48	; 72
    11bc:	80 93 c6 00 	sts	0x00C6, r24
    11c0:	2a 96       	adiw	r28, 0x0a	; 10
    11c2:	0f b6       	in	r0, 0x3f	; 63
    11c4:	f8 94       	cli
    11c6:	de bf       	out	0x3e, r29	; 62
    11c8:	0f be       	out	0x3f, r0	; 63
    11ca:	cd bf       	out	0x3d, r28	; 61
    11cc:	df 91       	pop	r29
    11ce:	cf 91       	pop	r28
    11d0:	08 95       	ret

000011d2 <clear_screen>:
    11d2:	80 91 c1 00 	lds	r24, 0x00C1
    11d6:	85 fd       	sbrc	r24, 5
    11d8:	fc cf       	rjmp	.-8      	; 0x11d2 <clear_screen>
    11da:	80 91 c0 00 	lds	r24, 0x00C0
    11de:	85 ff       	sbrs	r24, 5
    11e0:	f8 cf       	rjmp	.-16     	; 0x11d2 <clear_screen>
    11e2:	8b e1       	ldi	r24, 0x1B	; 27
    11e4:	80 93 c6 00 	sts	0x00C6, r24
    11e8:	80 91 c1 00 	lds	r24, 0x00C1
    11ec:	85 fd       	sbrc	r24, 5
    11ee:	fc cf       	rjmp	.-8      	; 0x11e8 <clear_screen+0x16>
    11f0:	80 91 c0 00 	lds	r24, 0x00C0
    11f4:	85 ff       	sbrs	r24, 5
    11f6:	f8 cf       	rjmp	.-16     	; 0x11e8 <clear_screen+0x16>
    11f8:	8b e5       	ldi	r24, 0x5B	; 91
    11fa:	80 93 c6 00 	sts	0x00C6, r24
    11fe:	80 91 c1 00 	lds	r24, 0x00C1
    1202:	85 fd       	sbrc	r24, 5
    1204:	fc cf       	rjmp	.-8      	; 0x11fe <clear_screen+0x2c>
    1206:	80 91 c0 00 	lds	r24, 0x00C0
    120a:	85 ff       	sbrs	r24, 5
    120c:	f8 cf       	rjmp	.-16     	; 0x11fe <clear_screen+0x2c>
    120e:	82 e3       	ldi	r24, 0x32	; 50
    1210:	80 93 c6 00 	sts	0x00C6, r24
    1214:	80 91 c1 00 	lds	r24, 0x00C1
    1218:	85 fd       	sbrc	r24, 5
    121a:	fc cf       	rjmp	.-8      	; 0x1214 <clear_screen+0x42>
    121c:	80 91 c0 00 	lds	r24, 0x00C0
    1220:	85 ff       	sbrs	r24, 5
    1222:	f8 cf       	rjmp	.-16     	; 0x1214 <clear_screen+0x42>
    1224:	8a e4       	ldi	r24, 0x4A	; 74
    1226:	80 93 c6 00 	sts	0x00C6, r24
    122a:	80 91 c1 00 	lds	r24, 0x00C1
    122e:	85 fd       	sbrc	r24, 5
    1230:	fc cf       	rjmp	.-8      	; 0x122a <clear_screen+0x58>
    1232:	80 91 c0 00 	lds	r24, 0x00C0
    1236:	85 ff       	sbrs	r24, 5
    1238:	f8 cf       	rjmp	.-16     	; 0x122a <clear_screen+0x58>
    123a:	8b e1       	ldi	r24, 0x1B	; 27
    123c:	80 93 c6 00 	sts	0x00C6, r24
    1240:	80 91 c1 00 	lds	r24, 0x00C1
    1244:	85 fd       	sbrc	r24, 5
    1246:	fc cf       	rjmp	.-8      	; 0x1240 <clear_screen+0x6e>
    1248:	80 91 c0 00 	lds	r24, 0x00C0
    124c:	85 ff       	sbrs	r24, 5
    124e:	f8 cf       	rjmp	.-16     	; 0x1240 <clear_screen+0x6e>
    1250:	8b e5       	ldi	r24, 0x5B	; 91
    1252:	80 93 c6 00 	sts	0x00C6, r24
    1256:	80 91 c1 00 	lds	r24, 0x00C1
    125a:	85 fd       	sbrc	r24, 5
    125c:	fc cf       	rjmp	.-8      	; 0x1256 <clear_screen+0x84>
    125e:	80 91 c0 00 	lds	r24, 0x00C0
    1262:	85 ff       	sbrs	r24, 5
    1264:	f8 cf       	rjmp	.-16     	; 0x1256 <clear_screen+0x84>
    1266:	88 e4       	ldi	r24, 0x48	; 72
    1268:	80 93 c6 00 	sts	0x00C6, r24
    126c:	08 95       	ret

0000126e <sem_enqueue>:
    126e:	fc 01       	movw	r30, r24
    1270:	82 85       	ldd	r24, Z+10	; 0x0a
    1272:	93 85       	ldd	r25, Z+11	; 0x0b
    1274:	89 2b       	or	r24, r25
    1276:	21 f4       	brne	.+8      	; 0x1280 <sem_enqueue+0x12>
    1278:	84 85       	ldd	r24, Z+12	; 0x0c
    127a:	95 85       	ldd	r25, Z+13	; 0x0d
    127c:	07 97       	sbiw	r24, 0x07	; 7
    127e:	d9 f0       	breq	.+54     	; 0x12b6 <sem_enqueue+0x48>
    1280:	84 85       	ldd	r24, Z+12	; 0x0c
    1282:	95 85       	ldd	r25, Z+13	; 0x0d
    1284:	22 85       	ldd	r18, Z+10	; 0x0a
    1286:	33 85       	ldd	r19, Z+11	; 0x0b
    1288:	01 96       	adiw	r24, 0x01	; 1
    128a:	82 17       	cp	r24, r18
    128c:	93 07       	cpc	r25, r19
    128e:	99 f0       	breq	.+38     	; 0x12b6 <sem_enqueue+0x48>
    1290:	84 85       	ldd	r24, Z+12	; 0x0c
    1292:	95 85       	ldd	r25, Z+13	; 0x0d
    1294:	01 96       	adiw	r24, 0x01	; 1
    1296:	81 f0       	breq	.+32     	; 0x12b8 <sem_enqueue+0x4a>
    1298:	84 85       	ldd	r24, Z+12	; 0x0c
    129a:	95 85       	ldd	r25, Z+13	; 0x0d
    129c:	01 96       	adiw	r24, 0x01	; 1
    129e:	87 70       	andi	r24, 0x07	; 7
    12a0:	90 78       	andi	r25, 0x80	; 128
    12a2:	97 fd       	sbrc	r25, 7
    12a4:	0e c0       	rjmp	.+28     	; 0x12c2 <sem_enqueue+0x54>
    12a6:	95 87       	std	Z+13, r25	; 0x0d
    12a8:	84 87       	std	Z+12, r24	; 0x0c
    12aa:	a4 85       	ldd	r26, Z+12	; 0x0c
    12ac:	b5 85       	ldd	r27, Z+13	; 0x0d
    12ae:	ae 0f       	add	r26, r30
    12b0:	bf 1f       	adc	r27, r31
    12b2:	12 96       	adiw	r26, 0x02	; 2
    12b4:	6c 93       	st	X, r22
    12b6:	08 95       	ret
    12b8:	15 86       	std	Z+13, r1	; 0x0d
    12ba:	14 86       	std	Z+12, r1	; 0x0c
    12bc:	13 86       	std	Z+11, r1	; 0x0b
    12be:	12 86       	std	Z+10, r1	; 0x0a
    12c0:	f4 cf       	rjmp	.-24     	; 0x12aa <sem_enqueue+0x3c>
    12c2:	01 97       	sbiw	r24, 0x01	; 1
    12c4:	88 6f       	ori	r24, 0xF8	; 248
    12c6:	9f 6f       	ori	r25, 0xFF	; 255
    12c8:	01 96       	adiw	r24, 0x01	; 1
    12ca:	ed cf       	rjmp	.-38     	; 0x12a6 <sem_enqueue+0x38>

000012cc <sem_dequeue>:
    12cc:	fc 01       	movw	r30, r24
    12ce:	82 85       	ldd	r24, Z+10	; 0x0a
    12d0:	93 85       	ldd	r25, Z+11	; 0x0b
    12d2:	01 96       	adiw	r24, 0x01	; 1
    12d4:	c1 f0       	breq	.+48     	; 0x1306 <sem_dequeue+0x3a>
    12d6:	a2 85       	ldd	r26, Z+10	; 0x0a
    12d8:	b3 85       	ldd	r27, Z+11	; 0x0b
    12da:	ae 0f       	add	r26, r30
    12dc:	bf 1f       	adc	r27, r31
    12de:	12 96       	adiw	r26, 0x02	; 2
    12e0:	8c 91       	ld	r24, X
    12e2:	42 85       	ldd	r20, Z+10	; 0x0a
    12e4:	53 85       	ldd	r21, Z+11	; 0x0b
    12e6:	24 85       	ldd	r18, Z+12	; 0x0c
    12e8:	35 85       	ldd	r19, Z+13	; 0x0d
    12ea:	42 17       	cp	r20, r18
    12ec:	53 07       	cpc	r21, r19
    12ee:	69 f0       	breq	.+26     	; 0x130a <sem_dequeue+0x3e>
    12f0:	22 85       	ldd	r18, Z+10	; 0x0a
    12f2:	33 85       	ldd	r19, Z+11	; 0x0b
    12f4:	2f 5f       	subi	r18, 0xFF	; 255
    12f6:	3f 4f       	sbci	r19, 0xFF	; 255
    12f8:	27 70       	andi	r18, 0x07	; 7
    12fa:	30 78       	andi	r19, 0x80	; 128
    12fc:	37 fd       	sbrc	r19, 7
    12fe:	0c c0       	rjmp	.+24     	; 0x1318 <sem_dequeue+0x4c>
    1300:	33 87       	std	Z+11, r19	; 0x0b
    1302:	22 87       	std	Z+10, r18	; 0x0a
    1304:	08 95       	ret
    1306:	80 e0       	ldi	r24, 0x00	; 0
    1308:	08 95       	ret
    130a:	2f ef       	ldi	r18, 0xFF	; 255
    130c:	3f ef       	ldi	r19, 0xFF	; 255
    130e:	35 87       	std	Z+13, r19	; 0x0d
    1310:	24 87       	std	Z+12, r18	; 0x0c
    1312:	33 87       	std	Z+11, r19	; 0x0b
    1314:	22 87       	std	Z+10, r18	; 0x0a
    1316:	08 95       	ret
    1318:	21 50       	subi	r18, 0x01	; 1
    131a:	31 09       	sbc	r19, r1
    131c:	28 6f       	ori	r18, 0xF8	; 248
    131e:	3f 6f       	ori	r19, 0xFF	; 255
    1320:	2f 5f       	subi	r18, 0xFF	; 255
    1322:	3f 4f       	sbci	r19, 0xFF	; 255
    1324:	33 87       	std	Z+11, r19	; 0x0b
    1326:	22 87       	std	Z+10, r18	; 0x0a
    1328:	08 95       	ret

0000132a <mutex_enqueue>:
    132a:	fc 01       	movw	r30, r24
    132c:	83 85       	ldd	r24, Z+11	; 0x0b
    132e:	94 85       	ldd	r25, Z+12	; 0x0c
    1330:	89 2b       	or	r24, r25
    1332:	21 f4       	brne	.+8      	; 0x133c <mutex_enqueue+0x12>
    1334:	85 85       	ldd	r24, Z+13	; 0x0d
    1336:	96 85       	ldd	r25, Z+14	; 0x0e
    1338:	07 97       	sbiw	r24, 0x07	; 7
    133a:	d9 f0       	breq	.+54     	; 0x1372 <mutex_enqueue+0x48>
    133c:	85 85       	ldd	r24, Z+13	; 0x0d
    133e:	96 85       	ldd	r25, Z+14	; 0x0e
    1340:	23 85       	ldd	r18, Z+11	; 0x0b
    1342:	34 85       	ldd	r19, Z+12	; 0x0c
    1344:	01 96       	adiw	r24, 0x01	; 1
    1346:	82 17       	cp	r24, r18
    1348:	93 07       	cpc	r25, r19
    134a:	99 f0       	breq	.+38     	; 0x1372 <mutex_enqueue+0x48>
    134c:	85 85       	ldd	r24, Z+13	; 0x0d
    134e:	96 85       	ldd	r25, Z+14	; 0x0e
    1350:	01 96       	adiw	r24, 0x01	; 1
    1352:	81 f0       	breq	.+32     	; 0x1374 <mutex_enqueue+0x4a>
    1354:	85 85       	ldd	r24, Z+13	; 0x0d
    1356:	96 85       	ldd	r25, Z+14	; 0x0e
    1358:	01 96       	adiw	r24, 0x01	; 1
    135a:	87 70       	andi	r24, 0x07	; 7
    135c:	90 78       	andi	r25, 0x80	; 128
    135e:	97 fd       	sbrc	r25, 7
    1360:	0e c0       	rjmp	.+28     	; 0x137e <mutex_enqueue+0x54>
    1362:	96 87       	std	Z+14, r25	; 0x0e
    1364:	85 87       	std	Z+13, r24	; 0x0d
    1366:	a5 85       	ldd	r26, Z+13	; 0x0d
    1368:	b6 85       	ldd	r27, Z+14	; 0x0e
    136a:	ae 0f       	add	r26, r30
    136c:	bf 1f       	adc	r27, r31
    136e:	12 96       	adiw	r26, 0x02	; 2
    1370:	6c 93       	st	X, r22
    1372:	08 95       	ret
    1374:	16 86       	std	Z+14, r1	; 0x0e
    1376:	15 86       	std	Z+13, r1	; 0x0d
    1378:	14 86       	std	Z+12, r1	; 0x0c
    137a:	13 86       	std	Z+11, r1	; 0x0b
    137c:	f4 cf       	rjmp	.-24     	; 0x1366 <mutex_enqueue+0x3c>
    137e:	01 97       	sbiw	r24, 0x01	; 1
    1380:	88 6f       	ori	r24, 0xF8	; 248
    1382:	9f 6f       	ori	r25, 0xFF	; 255
    1384:	01 96       	adiw	r24, 0x01	; 1
    1386:	ed cf       	rjmp	.-38     	; 0x1362 <mutex_enqueue+0x38>

00001388 <mutex_dequeue>:
    1388:	fc 01       	movw	r30, r24
    138a:	83 85       	ldd	r24, Z+11	; 0x0b
    138c:	94 85       	ldd	r25, Z+12	; 0x0c
    138e:	01 96       	adiw	r24, 0x01	; 1
    1390:	c1 f0       	breq	.+48     	; 0x13c2 <mutex_dequeue+0x3a>
    1392:	a3 85       	ldd	r26, Z+11	; 0x0b
    1394:	b4 85       	ldd	r27, Z+12	; 0x0c
    1396:	ae 0f       	add	r26, r30
    1398:	bf 1f       	adc	r27, r31
    139a:	12 96       	adiw	r26, 0x02	; 2
    139c:	8c 91       	ld	r24, X
    139e:	43 85       	ldd	r20, Z+11	; 0x0b
    13a0:	54 85       	ldd	r21, Z+12	; 0x0c
    13a2:	25 85       	ldd	r18, Z+13	; 0x0d
    13a4:	36 85       	ldd	r19, Z+14	; 0x0e
    13a6:	42 17       	cp	r20, r18
    13a8:	53 07       	cpc	r21, r19
    13aa:	69 f0       	breq	.+26     	; 0x13c6 <mutex_dequeue+0x3e>
    13ac:	23 85       	ldd	r18, Z+11	; 0x0b
    13ae:	34 85       	ldd	r19, Z+12	; 0x0c
    13b0:	2f 5f       	subi	r18, 0xFF	; 255
    13b2:	3f 4f       	sbci	r19, 0xFF	; 255
    13b4:	27 70       	andi	r18, 0x07	; 7
    13b6:	30 78       	andi	r19, 0x80	; 128
    13b8:	37 fd       	sbrc	r19, 7
    13ba:	0c c0       	rjmp	.+24     	; 0x13d4 <mutex_dequeue+0x4c>
    13bc:	34 87       	std	Z+12, r19	; 0x0c
    13be:	23 87       	std	Z+11, r18	; 0x0b
    13c0:	08 95       	ret
    13c2:	80 e0       	ldi	r24, 0x00	; 0
    13c4:	08 95       	ret
    13c6:	2f ef       	ldi	r18, 0xFF	; 255
    13c8:	3f ef       	ldi	r19, 0xFF	; 255
    13ca:	36 87       	std	Z+14, r19	; 0x0e
    13cc:	25 87       	std	Z+13, r18	; 0x0d
    13ce:	34 87       	std	Z+12, r19	; 0x0c
    13d0:	23 87       	std	Z+11, r18	; 0x0b
    13d2:	08 95       	ret
    13d4:	21 50       	subi	r18, 0x01	; 1
    13d6:	31 09       	sbc	r19, r1
    13d8:	28 6f       	ori	r18, 0xF8	; 248
    13da:	3f 6f       	ori	r19, 0xFF	; 255
    13dc:	2f 5f       	subi	r18, 0xFF	; 255
    13de:	3f 4f       	sbci	r19, 0xFF	; 255
    13e0:	34 87       	std	Z+12, r19	; 0x0c
    13e2:	23 87       	std	Z+11, r18	; 0x0b
    13e4:	08 95       	ret

000013e6 <mutex_init>:
    13e6:	cf 93       	push	r28
    13e8:	df 93       	push	r29
    13ea:	fc 01       	movw	r30, r24
    13ec:	8f ef       	ldi	r24, 0xFF	; 255
    13ee:	9f ef       	ldi	r25, 0xFF	; 255
    13f0:	df 01       	movw	r26, r30
    13f2:	11 96       	adiw	r26, 0x01	; 1
    13f4:	9c 93       	st	X, r25
    13f6:	8e 93       	st	-X, r24
    13f8:	12 96       	adiw	r26, 0x02	; 2
    13fa:	28 e0       	ldi	r18, 0x08	; 8
    13fc:	ed 01       	movw	r28, r26
    13fe:	19 92       	st	Y+, r1
    1400:	2a 95       	dec	r18
    1402:	e9 f7       	brne	.-6      	; 0x13fe <mutex_init+0x18>
    1404:	12 86       	std	Z+10, r1	; 0x0a
    1406:	94 87       	std	Z+12, r25	; 0x0c
    1408:	83 87       	std	Z+11, r24	; 0x0b
    140a:	96 87       	std	Z+14, r25	; 0x0e
    140c:	85 87       	std	Z+13, r24	; 0x0d
    140e:	df 91       	pop	r29
    1410:	cf 91       	pop	r28
    1412:	08 95       	ret

00001414 <mutex_unlock>:
    1414:	cf 93       	push	r28
    1416:	df 93       	push	r29
    1418:	fc 01       	movw	r30, r24
    141a:	f8 94       	cli
    141c:	a0 91 f1 02 	lds	r26, 0x02F1
    1420:	20 81       	ld	r18, Z
    1422:	31 81       	ldd	r19, Z+1	; 0x01
    1424:	80 91 f1 02 	lds	r24, 0x02F1
    1428:	90 e0       	ldi	r25, 0x00	; 0
    142a:	28 17       	cp	r18, r24
    142c:	39 07       	cpc	r19, r25
    142e:	21 f0       	breq	.+8      	; 0x1438 <mutex_unlock+0x24>
    1430:	78 94       	sei
    1432:	df 91       	pop	r29
    1434:	cf 91       	pop	r28
    1436:	08 95       	ret
    1438:	82 85       	ldd	r24, Z+10	; 0x0a
    143a:	88 23       	and	r24, r24
    143c:	09 f4       	brne	.+2      	; 0x1440 <mutex_unlock+0x2c>
    143e:	6b c0       	rjmp	.+214    	; 0x1516 <mutex_unlock+0x102>
    1440:	4a 2f       	mov	r20, r26
    1442:	50 e0       	ldi	r21, 0x00	; 0
    1444:	27 e1       	ldi	r18, 0x17	; 23
    1446:	a2 9f       	mul	r26, r18
    1448:	d0 01       	movw	r26, r0
    144a:	11 24       	eor	r1, r1
    144c:	ae 5c       	subi	r26, 0xCE	; 206
    144e:	bd 4f       	sbci	r27, 0xFD	; 253
    1450:	1b 96       	adiw	r26, 0x0b	; 11
    1452:	cd 91       	ld	r28, X+
    1454:	dc 91       	ld	r29, X
    1456:	1c 97       	sbiw	r26, 0x0c	; 12
    1458:	8c 89       	ldd	r24, Y+20	; 0x14
    145a:	5b 96       	adiw	r26, 0x1b	; 27
    145c:	8c 93       	st	X, r24
    145e:	5b 97       	sbiw	r26, 0x1b	; 27
    1460:	8b 89       	ldd	r24, Y+19	; 0x13
    1462:	5c 96       	adiw	r26, 0x1c	; 28
    1464:	8c 93       	st	X, r24
    1466:	5c 97       	sbiw	r26, 0x1c	; 28
    1468:	81 e0       	ldi	r24, 0x01	; 1
    146a:	90 e0       	ldi	r25, 0x00	; 0
    146c:	56 96       	adiw	r26, 0x16	; 22
    146e:	9c 93       	st	X, r25
    1470:	8e 93       	st	-X, r24
    1472:	55 97       	sbiw	r26, 0x15	; 21
    1474:	83 85       	ldd	r24, Z+11	; 0x0b
    1476:	94 85       	ldd	r25, Z+12	; 0x0c
    1478:	01 96       	adiw	r24, 0x01	; 1
    147a:	09 f4       	brne	.+2      	; 0x147e <mutex_unlock+0x6a>
    147c:	5b c0       	rjmp	.+182    	; 0x1534 <mutex_unlock+0x120>
    147e:	a3 85       	ldd	r26, Z+11	; 0x0b
    1480:	b4 85       	ldd	r27, Z+12	; 0x0c
    1482:	ae 0f       	add	r26, r30
    1484:	bf 1f       	adc	r27, r31
    1486:	12 96       	adiw	r26, 0x02	; 2
    1488:	6c 91       	ld	r22, X
    148a:	23 85       	ldd	r18, Z+11	; 0x0b
    148c:	34 85       	ldd	r19, Z+12	; 0x0c
    148e:	85 85       	ldd	r24, Z+13	; 0x0d
    1490:	96 85       	ldd	r25, Z+14	; 0x0e
    1492:	28 17       	cp	r18, r24
    1494:	39 07       	cpc	r19, r25
    1496:	09 f4       	brne	.+2      	; 0x149a <mutex_unlock+0x86>
    1498:	46 c0       	rjmp	.+140    	; 0x1526 <mutex_unlock+0x112>
    149a:	83 85       	ldd	r24, Z+11	; 0x0b
    149c:	94 85       	ldd	r25, Z+12	; 0x0c
    149e:	01 96       	adiw	r24, 0x01	; 1
    14a0:	87 70       	andi	r24, 0x07	; 7
    14a2:	90 78       	andi	r25, 0x80	; 128
    14a4:	97 fd       	sbrc	r25, 7
    14a6:	48 c0       	rjmp	.+144    	; 0x1538 <mutex_unlock+0x124>
    14a8:	94 87       	std	Z+12, r25	; 0x0c
    14aa:	83 87       	std	Z+11, r24	; 0x0b
    14ac:	60 93 f1 02 	sts	0x02F1, r22
    14b0:	82 85       	ldd	r24, Z+10	; 0x0a
    14b2:	81 50       	subi	r24, 0x01	; 1
    14b4:	82 87       	std	Z+10, r24	; 0x0a
    14b6:	80 91 f1 02 	lds	r24, 0x02F1
    14ba:	90 e0       	ldi	r25, 0x00	; 0
    14bc:	91 83       	std	Z+1, r25	; 0x01
    14be:	80 83       	st	Z, r24
    14c0:	e0 91 f1 02 	lds	r30, 0x02F1
    14c4:	87 e1       	ldi	r24, 0x17	; 23
    14c6:	8e 9f       	mul	r24, r30
    14c8:	f0 01       	movw	r30, r0
    14ca:	11 24       	eor	r1, r1
    14cc:	ee 5c       	subi	r30, 0xCE	; 206
    14ce:	fd 4f       	sbci	r31, 0xFD	; 253
    14d0:	16 8a       	std	Z+22, r1	; 0x16
    14d2:	15 8a       	std	Z+21, r1	; 0x15
    14d4:	e0 91 f1 02 	lds	r30, 0x02F1
    14d8:	8e 9f       	mul	r24, r30
    14da:	f0 01       	movw	r30, r0
    14dc:	11 24       	eor	r1, r1
    14de:	ee 5c       	subi	r30, 0xCE	; 206
    14e0:	fd 4f       	sbci	r31, 0xFD	; 253
    14e2:	21 8d       	ldd	r18, Z+25	; 0x19
    14e4:	32 8d       	ldd	r19, Z+26	; 0x1a
    14e6:	2f 5f       	subi	r18, 0xFF	; 255
    14e8:	3f 4f       	sbci	r19, 0xFF	; 255
    14ea:	32 8f       	std	Z+26, r19	; 0x1a
    14ec:	21 8f       	std	Z+25, r18	; 0x19
    14ee:	90 91 f1 02 	lds	r25, 0x02F1
    14f2:	84 9f       	mul	r24, r20
    14f4:	b0 01       	movw	r22, r0
    14f6:	85 9f       	mul	r24, r21
    14f8:	70 0d       	add	r23, r0
    14fa:	11 24       	eor	r1, r1
    14fc:	63 5c       	subi	r22, 0xC3	; 195
    14fe:	7d 4f       	sbci	r23, 0xFD	; 253
    1500:	89 9f       	mul	r24, r25
    1502:	c0 01       	movw	r24, r0
    1504:	11 24       	eor	r1, r1
    1506:	83 5c       	subi	r24, 0xC3	; 195
    1508:	9d 4f       	sbci	r25, 0xFD	; 253
    150a:	0e 94 e3 02 	call	0x5c6	; 0x5c6 <context_switch>
    150e:	78 94       	sei
    1510:	df 91       	pop	r29
    1512:	cf 91       	pop	r28
    1514:	08 95       	ret
    1516:	8f ef       	ldi	r24, 0xFF	; 255
    1518:	9f ef       	ldi	r25, 0xFF	; 255
    151a:	91 83       	std	Z+1, r25	; 0x01
    151c:	80 83       	st	Z, r24
    151e:	78 94       	sei
    1520:	df 91       	pop	r29
    1522:	cf 91       	pop	r28
    1524:	08 95       	ret
    1526:	8f ef       	ldi	r24, 0xFF	; 255
    1528:	9f ef       	ldi	r25, 0xFF	; 255
    152a:	96 87       	std	Z+14, r25	; 0x0e
    152c:	85 87       	std	Z+13, r24	; 0x0d
    152e:	94 87       	std	Z+12, r25	; 0x0c
    1530:	83 87       	std	Z+11, r24	; 0x0b
    1532:	bc cf       	rjmp	.-136    	; 0x14ac <mutex_unlock+0x98>
    1534:	60 e0       	ldi	r22, 0x00	; 0
    1536:	ba cf       	rjmp	.-140    	; 0x14ac <mutex_unlock+0x98>
    1538:	01 97       	sbiw	r24, 0x01	; 1
    153a:	88 6f       	ori	r24, 0xF8	; 248
    153c:	9f 6f       	ori	r25, 0xFF	; 255
    153e:	01 96       	adiw	r24, 0x01	; 1
    1540:	b3 cf       	rjmp	.-154    	; 0x14a8 <mutex_unlock+0x94>

00001542 <sem_init>:
    1542:	77 27       	eor	r23, r23
    1544:	67 fd       	sbrc	r22, 7
    1546:	70 95       	com	r23
    1548:	fc 01       	movw	r30, r24
    154a:	71 83       	std	Z+1, r23	; 0x01
    154c:	60 83       	st	Z, r22
    154e:	32 96       	adiw	r30, 0x02	; 2
    1550:	48 e0       	ldi	r20, 0x08	; 8
    1552:	df 01       	movw	r26, r30
    1554:	24 2f       	mov	r18, r20
    1556:	1d 92       	st	X+, r1
    1558:	2a 95       	dec	r18
    155a:	e9 f7       	brne	.-6      	; 0x1556 <sem_init+0x14>
    155c:	2f ef       	ldi	r18, 0xFF	; 255
    155e:	3f ef       	ldi	r19, 0xFF	; 255
    1560:	dc 01       	movw	r26, r24
    1562:	1b 96       	adiw	r26, 0x0b	; 11
    1564:	3c 93       	st	X, r19
    1566:	2e 93       	st	-X, r18
    1568:	1a 97       	sbiw	r26, 0x0a	; 10
    156a:	1d 96       	adiw	r26, 0x0d	; 13
    156c:	3c 93       	st	X, r19
    156e:	2e 93       	st	-X, r18
    1570:	1c 97       	sbiw	r26, 0x0c	; 12
    1572:	81 e0       	ldi	r24, 0x01	; 1
    1574:	90 e0       	ldi	r25, 0x00	; 0
    1576:	90 93 1b 02 	sts	0x021B, r25
    157a:	80 93 1a 02 	sts	0x021A, r24
    157e:	ec e1       	ldi	r30, 0x1C	; 28
    1580:	f2 e0       	ldi	r31, 0x02	; 2
    1582:	df 01       	movw	r26, r30
    1584:	84 2f       	mov	r24, r20
    1586:	1d 92       	st	X+, r1
    1588:	8a 95       	dec	r24
    158a:	e9 f7       	brne	.-6      	; 0x1586 <sem_init+0x44>
    158c:	30 93 25 02 	sts	0x0225, r19
    1590:	20 93 24 02 	sts	0x0224, r18
    1594:	30 93 27 02 	sts	0x0227, r19
    1598:	20 93 26 02 	sts	0x0226, r18
    159c:	10 92 0a 02 	sts	0x020A, r1
    15a0:	10 92 09 02 	sts	0x0209, r1
    15a4:	eb e0       	ldi	r30, 0x0B	; 11
    15a6:	f2 e0       	ldi	r31, 0x02	; 2
    15a8:	df 01       	movw	r26, r30
    15aa:	84 2f       	mov	r24, r20
    15ac:	1d 92       	st	X+, r1
    15ae:	8a 95       	dec	r24
    15b0:	e9 f7       	brne	.-6      	; 0x15ac <sem_init+0x6a>
    15b2:	30 93 14 02 	sts	0x0214, r19
    15b6:	20 93 13 02 	sts	0x0213, r18
    15ba:	30 93 16 02 	sts	0x0216, r19
    15be:	20 93 15 02 	sts	0x0215, r18
    15c2:	8a e0       	ldi	r24, 0x0A	; 10
    15c4:	90 e0       	ldi	r25, 0x00	; 0
    15c6:	90 93 16 03 	sts	0x0316, r25
    15ca:	80 93 15 03 	sts	0x0315, r24
    15ce:	e7 e1       	ldi	r30, 0x17	; 23
    15d0:	f3 e0       	ldi	r31, 0x03	; 3
    15d2:	df 01       	movw	r26, r30
    15d4:	1d 92       	st	X+, r1
    15d6:	4a 95       	dec	r20
    15d8:	e9 f7       	brne	.-6      	; 0x15d4 <sem_init+0x92>
    15da:	30 93 20 03 	sts	0x0320, r19
    15de:	20 93 1f 03 	sts	0x031F, r18
    15e2:	30 93 22 03 	sts	0x0322, r19
    15e6:	20 93 21 03 	sts	0x0321, r18
    15ea:	08 95       	ret

000015ec <sem_signal>:
    15ec:	fc 01       	movw	r30, r24
    15ee:	f8 94       	cli
    15f0:	80 81       	ld	r24, Z
    15f2:	91 81       	ldd	r25, Z+1	; 0x01
    15f4:	01 96       	adiw	r24, 0x01	; 1
    15f6:	91 83       	std	Z+1, r25	; 0x01
    15f8:	80 83       	st	Z, r24
    15fa:	80 81       	ld	r24, Z
    15fc:	91 81       	ldd	r25, Z+1	; 0x01
    15fe:	18 16       	cp	r1, r24
    1600:	19 06       	cpc	r1, r25
    1602:	14 f4       	brge	.+4      	; 0x1608 <sem_signal+0x1c>
    1604:	78 94       	sei
    1606:	08 95       	ret
    1608:	82 85       	ldd	r24, Z+10	; 0x0a
    160a:	93 85       	ldd	r25, Z+11	; 0x0b
    160c:	01 96       	adiw	r24, 0x01	; 1
    160e:	79 f1       	breq	.+94     	; 0x166e <sem_signal+0x82>
    1610:	a2 85       	ldd	r26, Z+10	; 0x0a
    1612:	b3 85       	ldd	r27, Z+11	; 0x0b
    1614:	ae 0f       	add	r26, r30
    1616:	bf 1f       	adc	r27, r31
    1618:	12 96       	adiw	r26, 0x02	; 2
    161a:	6c 91       	ld	r22, X
    161c:	42 85       	ldd	r20, Z+10	; 0x0a
    161e:	53 85       	ldd	r21, Z+11	; 0x0b
    1620:	24 85       	ldd	r18, Z+12	; 0x0c
    1622:	35 85       	ldd	r19, Z+13	; 0x0d
    1624:	42 17       	cp	r20, r18
    1626:	53 07       	cpc	r21, r19
    1628:	c9 f0       	breq	.+50     	; 0x165c <sem_signal+0x70>
    162a:	82 85       	ldd	r24, Z+10	; 0x0a
    162c:	93 85       	ldd	r25, Z+11	; 0x0b
    162e:	01 96       	adiw	r24, 0x01	; 1
    1630:	87 70       	andi	r24, 0x07	; 7
    1632:	90 78       	andi	r25, 0x80	; 128
    1634:	97 fd       	sbrc	r25, 7
    1636:	1e c0       	rjmp	.+60     	; 0x1674 <sem_signal+0x88>
    1638:	93 87       	std	Z+11, r25	; 0x0b
    163a:	82 87       	std	Z+10, r24	; 0x0a
    163c:	86 2f       	mov	r24, r22
    163e:	90 e0       	ldi	r25, 0x00	; 0
    1640:	27 e1       	ldi	r18, 0x17	; 23
    1642:	28 9f       	mul	r18, r24
    1644:	f0 01       	movw	r30, r0
    1646:	29 9f       	mul	r18, r25
    1648:	f0 0d       	add	r31, r0
    164a:	11 24       	eor	r1, r1
    164c:	ee 5c       	subi	r30, 0xCE	; 206
    164e:	fd 4f       	sbci	r31, 0xFD	; 253
    1650:	81 e0       	ldi	r24, 0x01	; 1
    1652:	90 e0       	ldi	r25, 0x00	; 0
    1654:	96 8b       	std	Z+22, r25	; 0x16
    1656:	85 8b       	std	Z+21, r24	; 0x15
    1658:	78 94       	sei
    165a:	08 95       	ret
    165c:	2f ef       	ldi	r18, 0xFF	; 255
    165e:	3f ef       	ldi	r19, 0xFF	; 255
    1660:	35 87       	std	Z+13, r19	; 0x0d
    1662:	24 87       	std	Z+12, r18	; 0x0c
    1664:	33 87       	std	Z+11, r19	; 0x0b
    1666:	22 87       	std	Z+10, r18	; 0x0a
    1668:	86 2f       	mov	r24, r22
    166a:	90 e0       	ldi	r25, 0x00	; 0
    166c:	e9 cf       	rjmp	.-46     	; 0x1640 <sem_signal+0x54>
    166e:	80 e0       	ldi	r24, 0x00	; 0
    1670:	90 e0       	ldi	r25, 0x00	; 0
    1672:	e6 cf       	rjmp	.-52     	; 0x1640 <sem_signal+0x54>
    1674:	01 97       	sbiw	r24, 0x01	; 1
    1676:	88 6f       	ori	r24, 0xF8	; 248
    1678:	9f 6f       	ori	r25, 0xFF	; 255
    167a:	01 96       	adiw	r24, 0x01	; 1
    167c:	dd cf       	rjmp	.-70     	; 0x1638 <sem_signal+0x4c>

0000167e <sem_signal_swap>:
    167e:	cf 93       	push	r28
    1680:	df 93       	push	r29
    1682:	fc 01       	movw	r30, r24
    1684:	f8 94       	cli
    1686:	a0 91 f1 02 	lds	r26, 0x02F1
    168a:	80 81       	ld	r24, Z
    168c:	91 81       	ldd	r25, Z+1	; 0x01
    168e:	01 96       	adiw	r24, 0x01	; 1
    1690:	91 83       	std	Z+1, r25	; 0x01
    1692:	80 83       	st	Z, r24
    1694:	80 81       	ld	r24, Z
    1696:	91 81       	ldd	r25, Z+1	; 0x01
    1698:	18 16       	cp	r1, r24
    169a:	19 06       	cpc	r1, r25
    169c:	24 f4       	brge	.+8      	; 0x16a6 <sem_signal_swap+0x28>
    169e:	78 94       	sei
    16a0:	df 91       	pop	r29
    16a2:	cf 91       	pop	r28
    16a4:	08 95       	ret
    16a6:	4a 2f       	mov	r20, r26
    16a8:	50 e0       	ldi	r21, 0x00	; 0
    16aa:	27 e1       	ldi	r18, 0x17	; 23
    16ac:	a2 9f       	mul	r26, r18
    16ae:	d0 01       	movw	r26, r0
    16b0:	11 24       	eor	r1, r1
    16b2:	ae 5c       	subi	r26, 0xCE	; 206
    16b4:	bd 4f       	sbci	r27, 0xFD	; 253
    16b6:	1b 96       	adiw	r26, 0x0b	; 11
    16b8:	cd 91       	ld	r28, X+
    16ba:	dc 91       	ld	r29, X
    16bc:	1c 97       	sbiw	r26, 0x0c	; 12
    16be:	8c 89       	ldd	r24, Y+20	; 0x14
    16c0:	5b 96       	adiw	r26, 0x1b	; 27
    16c2:	8c 93       	st	X, r24
    16c4:	5b 97       	sbiw	r26, 0x1b	; 27
    16c6:	8b 89       	ldd	r24, Y+19	; 0x13
    16c8:	5c 96       	adiw	r26, 0x1c	; 28
    16ca:	8c 93       	st	X, r24
    16cc:	5c 97       	sbiw	r26, 0x1c	; 28
    16ce:	81 e0       	ldi	r24, 0x01	; 1
    16d0:	90 e0       	ldi	r25, 0x00	; 0
    16d2:	56 96       	adiw	r26, 0x16	; 22
    16d4:	9c 93       	st	X, r25
    16d6:	8e 93       	st	-X, r24
    16d8:	55 97       	sbiw	r26, 0x15	; 21
    16da:	82 85       	ldd	r24, Z+10	; 0x0a
    16dc:	93 85       	ldd	r25, Z+11	; 0x0b
    16de:	01 96       	adiw	r24, 0x01	; 1
    16e0:	09 f4       	brne	.+2      	; 0x16e4 <sem_signal_swap+0x66>
    16e2:	4a c0       	rjmp	.+148    	; 0x1778 <sem_signal_swap+0xfa>
    16e4:	a2 85       	ldd	r26, Z+10	; 0x0a
    16e6:	b3 85       	ldd	r27, Z+11	; 0x0b
    16e8:	ae 0f       	add	r26, r30
    16ea:	bf 1f       	adc	r27, r31
    16ec:	12 96       	adiw	r26, 0x02	; 2
    16ee:	6c 91       	ld	r22, X
    16f0:	22 85       	ldd	r18, Z+10	; 0x0a
    16f2:	33 85       	ldd	r19, Z+11	; 0x0b
    16f4:	84 85       	ldd	r24, Z+12	; 0x0c
    16f6:	95 85       	ldd	r25, Z+13	; 0x0d
    16f8:	28 17       	cp	r18, r24
    16fa:	39 07       	cpc	r19, r25
    16fc:	b1 f1       	breq	.+108    	; 0x176a <sem_signal_swap+0xec>
    16fe:	82 85       	ldd	r24, Z+10	; 0x0a
    1700:	93 85       	ldd	r25, Z+11	; 0x0b
    1702:	01 96       	adiw	r24, 0x01	; 1
    1704:	87 70       	andi	r24, 0x07	; 7
    1706:	90 78       	andi	r25, 0x80	; 128
    1708:	97 fd       	sbrc	r25, 7
    170a:	38 c0       	rjmp	.+112    	; 0x177c <sem_signal_swap+0xfe>
    170c:	93 87       	std	Z+11, r25	; 0x0b
    170e:	82 87       	std	Z+10, r24	; 0x0a
    1710:	60 93 f1 02 	sts	0x02F1, r22
    1714:	e0 91 f1 02 	lds	r30, 0x02F1
    1718:	87 e1       	ldi	r24, 0x17	; 23
    171a:	8e 9f       	mul	r24, r30
    171c:	f0 01       	movw	r30, r0
    171e:	11 24       	eor	r1, r1
    1720:	ee 5c       	subi	r30, 0xCE	; 206
    1722:	fd 4f       	sbci	r31, 0xFD	; 253
    1724:	16 8a       	std	Z+22, r1	; 0x16
    1726:	15 8a       	std	Z+21, r1	; 0x15
    1728:	e0 91 f1 02 	lds	r30, 0x02F1
    172c:	8e 9f       	mul	r24, r30
    172e:	f0 01       	movw	r30, r0
    1730:	11 24       	eor	r1, r1
    1732:	ee 5c       	subi	r30, 0xCE	; 206
    1734:	fd 4f       	sbci	r31, 0xFD	; 253
    1736:	21 8d       	ldd	r18, Z+25	; 0x19
    1738:	32 8d       	ldd	r19, Z+26	; 0x1a
    173a:	2f 5f       	subi	r18, 0xFF	; 255
    173c:	3f 4f       	sbci	r19, 0xFF	; 255
    173e:	32 8f       	std	Z+26, r19	; 0x1a
    1740:	21 8f       	std	Z+25, r18	; 0x19
    1742:	90 91 f1 02 	lds	r25, 0x02F1
    1746:	84 9f       	mul	r24, r20
    1748:	b0 01       	movw	r22, r0
    174a:	85 9f       	mul	r24, r21
    174c:	70 0d       	add	r23, r0
    174e:	11 24       	eor	r1, r1
    1750:	63 5c       	subi	r22, 0xC3	; 195
    1752:	7d 4f       	sbci	r23, 0xFD	; 253
    1754:	89 9f       	mul	r24, r25
    1756:	c0 01       	movw	r24, r0
    1758:	11 24       	eor	r1, r1
    175a:	83 5c       	subi	r24, 0xC3	; 195
    175c:	9d 4f       	sbci	r25, 0xFD	; 253
    175e:	0e 94 e3 02 	call	0x5c6	; 0x5c6 <context_switch>
    1762:	78 94       	sei
    1764:	df 91       	pop	r29
    1766:	cf 91       	pop	r28
    1768:	08 95       	ret
    176a:	8f ef       	ldi	r24, 0xFF	; 255
    176c:	9f ef       	ldi	r25, 0xFF	; 255
    176e:	95 87       	std	Z+13, r25	; 0x0d
    1770:	84 87       	std	Z+12, r24	; 0x0c
    1772:	93 87       	std	Z+11, r25	; 0x0b
    1774:	82 87       	std	Z+10, r24	; 0x0a
    1776:	cc cf       	rjmp	.-104    	; 0x1710 <sem_signal_swap+0x92>
    1778:	60 e0       	ldi	r22, 0x00	; 0
    177a:	ca cf       	rjmp	.-108    	; 0x1710 <sem_signal_swap+0x92>
    177c:	01 97       	sbiw	r24, 0x01	; 1
    177e:	88 6f       	ori	r24, 0xF8	; 248
    1780:	9f 6f       	ori	r25, 0xFF	; 255
    1782:	01 96       	adiw	r24, 0x01	; 1
    1784:	c3 cf       	rjmp	.-122    	; 0x170c <sem_signal_swap+0x8e>

00001786 <yield>:
    1786:	ff 92       	push	r15
    1788:	0f 93       	push	r16
    178a:	1f 93       	push	r17
    178c:	cf 93       	push	r28
    178e:	df 93       	push	r29
    1790:	c1 ef       	ldi	r28, 0xF1	; 241
    1792:	d2 e0       	ldi	r29, 0x02	; 2
    1794:	08 81       	ld	r16, Y
    1796:	87 e1       	ldi	r24, 0x17	; 23
    1798:	f8 2e       	mov	r15, r24
    179a:	f0 9e       	mul	r15, r16
    179c:	80 01       	movw	r16, r0
    179e:	11 24       	eor	r1, r1
    17a0:	f8 01       	movw	r30, r16
    17a2:	ee 5c       	subi	r30, 0xCE	; 206
    17a4:	fd 4f       	sbci	r31, 0xFD	; 253
    17a6:	a3 85       	ldd	r26, Z+11	; 0x0b
    17a8:	b4 85       	ldd	r27, Z+12	; 0x0c
    17aa:	54 96       	adiw	r26, 0x14	; 20
    17ac:	8c 91       	ld	r24, X
    17ae:	54 97       	sbiw	r26, 0x14	; 20
    17b0:	83 8f       	std	Z+27, r24	; 0x1b
    17b2:	53 96       	adiw	r26, 0x13	; 19
    17b4:	8c 91       	ld	r24, X
    17b6:	84 8f       	std	Z+28, r24	; 0x1c
    17b8:	23 e0       	ldi	r18, 0x03	; 3
    17ba:	30 e0       	ldi	r19, 0x00	; 0
    17bc:	36 8b       	std	Z+22, r19	; 0x16
    17be:	25 8b       	std	Z+21, r18	; 0x15
    17c0:	0e 94 a4 02 	call	0x548	; 0x548 <get_next_thread>
    17c4:	88 83       	st	Y, r24
    17c6:	e8 81       	ld	r30, Y
    17c8:	fe 9e       	mul	r15, r30
    17ca:	f0 01       	movw	r30, r0
    17cc:	11 24       	eor	r1, r1
    17ce:	ee 5c       	subi	r30, 0xCE	; 206
    17d0:	fd 4f       	sbci	r31, 0xFD	; 253
    17d2:	16 8a       	std	Z+22, r1	; 0x16
    17d4:	15 8a       	std	Z+21, r1	; 0x15
    17d6:	e8 81       	ld	r30, Y
    17d8:	fe 9e       	mul	r15, r30
    17da:	f0 01       	movw	r30, r0
    17dc:	11 24       	eor	r1, r1
    17de:	ee 5c       	subi	r30, 0xCE	; 206
    17e0:	fd 4f       	sbci	r31, 0xFD	; 253
    17e2:	21 8d       	ldd	r18, Z+25	; 0x19
    17e4:	32 8d       	ldd	r19, Z+26	; 0x1a
    17e6:	2f 5f       	subi	r18, 0xFF	; 255
    17e8:	3f 4f       	sbci	r19, 0xFF	; 255
    17ea:	32 8f       	std	Z+26, r19	; 0x1a
    17ec:	21 8f       	std	Z+25, r18	; 0x19
    17ee:	88 81       	ld	r24, Y
    17f0:	b8 01       	movw	r22, r16
    17f2:	63 5c       	subi	r22, 0xC3	; 195
    17f4:	7d 4f       	sbci	r23, 0xFD	; 253
    17f6:	f8 9e       	mul	r15, r24
    17f8:	c0 01       	movw	r24, r0
    17fa:	11 24       	eor	r1, r1
    17fc:	83 5c       	subi	r24, 0xC3	; 195
    17fe:	9d 4f       	sbci	r25, 0xFD	; 253
    1800:	df 91       	pop	r29
    1802:	cf 91       	pop	r28
    1804:	1f 91       	pop	r17
    1806:	0f 91       	pop	r16
    1808:	ff 90       	pop	r15
    180a:	0c 94 e3 02 	jmp	0x5c6	; 0x5c6 <context_switch>

0000180e <mutex_lock>:
    180e:	cf 93       	push	r28
    1810:	df 93       	push	r29
    1812:	ec 01       	movw	r28, r24
    1814:	f8 94       	cli
    1816:	88 81       	ld	r24, Y
    1818:	99 81       	ldd	r25, Y+1	; 0x01
    181a:	01 96       	adiw	r24, 0x01	; 1
    181c:	b1 f0       	breq	.+44     	; 0x184a <mutex_lock+0x3c>
    181e:	28 81       	ld	r18, Y
    1820:	39 81       	ldd	r19, Y+1	; 0x01
    1822:	80 91 f1 02 	lds	r24, 0x02F1
    1826:	90 e0       	ldi	r25, 0x00	; 0
    1828:	28 17       	cp	r18, r24
    182a:	39 07       	cpc	r19, r25
    182c:	51 f0       	breq	.+20     	; 0x1842 <mutex_lock+0x34>
    182e:	60 91 f1 02 	lds	r22, 0x02F1
    1832:	ce 01       	movw	r24, r28
    1834:	0e 94 95 09 	call	0x132a	; 0x132a <mutex_enqueue>
    1838:	8a 85       	ldd	r24, Y+10	; 0x0a
    183a:	8f 5f       	subi	r24, 0xFF	; 255
    183c:	8a 87       	std	Y+10, r24	; 0x0a
    183e:	0e 94 c3 0b 	call	0x1786	; 0x1786 <yield>
    1842:	78 94       	sei
    1844:	df 91       	pop	r29
    1846:	cf 91       	pop	r28
    1848:	08 95       	ret
    184a:	80 91 f1 02 	lds	r24, 0x02F1
    184e:	90 e0       	ldi	r25, 0x00	; 0
    1850:	99 83       	std	Y+1, r25	; 0x01
    1852:	88 83       	st	Y, r24
    1854:	78 94       	sei
    1856:	df 91       	pop	r29
    1858:	cf 91       	pop	r28
    185a:	08 95       	ret

0000185c <sem_wait>:
    185c:	fc 01       	movw	r30, r24
    185e:	f8 94       	cli
    1860:	80 81       	ld	r24, Z
    1862:	91 81       	ldd	r25, Z+1	; 0x01
    1864:	01 97       	sbiw	r24, 0x01	; 1
    1866:	91 83       	std	Z+1, r25	; 0x01
    1868:	80 83       	st	Z, r24
    186a:	80 81       	ld	r24, Z
    186c:	91 81       	ldd	r25, Z+1	; 0x01
    186e:	97 fd       	sbrc	r25, 7
    1870:	02 c0       	rjmp	.+4      	; 0x1876 <sem_wait+0x1a>
    1872:	78 94       	sei
    1874:	08 95       	ret
    1876:	60 91 f1 02 	lds	r22, 0x02F1
    187a:	cf 01       	movw	r24, r30
    187c:	0e 94 37 09 	call	0x126e	; 0x126e <sem_enqueue>
    1880:	0e 94 c3 0b 	call	0x1786	; 0x1786 <yield>
    1884:	78 94       	sei
    1886:	08 95       	ret

00001888 <main>:
    1888:	0e 94 a8 05 	call	0xb50	; 0xb50 <serial_init>
    188c:	0e 94 90 04 	call	0x920	; 0x920 <os_init>
    1890:	86 e0       	ldi	r24, 0x06	; 6
    1892:	93 e0       	ldi	r25, 0x03	; 3
    1894:	0e 94 f3 09 	call	0x13e6	; 0x13e6 <mutex_init>
    1898:	61 e0       	ldi	r22, 0x01	; 1
    189a:	86 ef       	ldi	r24, 0xF6	; 246
    189c:	92 e0       	ldi	r25, 0x02	; 2
    189e:	0e 94 a1 0a 	call	0x1542	; 0x1542 <sem_init>
    18a2:	0e 94 88 02 	call	0x510	; 0x510 <buffer_init>
    18a6:	40 e2       	ldi	r20, 0x20	; 32
    18a8:	50 e0       	ldi	r21, 0x00	; 0
    18aa:	60 e0       	ldi	r22, 0x00	; 0
    18ac:	70 e0       	ldi	r23, 0x00	; 0
    18ae:	8b e0       	ldi	r24, 0x0B	; 11
    18b0:	92 e0       	ldi	r25, 0x02	; 2
    18b2:	0e 94 aa 04 	call	0x954	; 0x954 <create_thread>
    18b6:	40 e2       	ldi	r20, 0x20	; 32
    18b8:	50 e0       	ldi	r21, 0x00	; 0
    18ba:	60 e0       	ldi	r22, 0x00	; 0
    18bc:	70 e0       	ldi	r23, 0x00	; 0
    18be:	8e e3       	ldi	r24, 0x3E	; 62
    18c0:	92 e0       	ldi	r25, 0x02	; 2
    18c2:	0e 94 aa 04 	call	0x954	; 0x954 <create_thread>
    18c6:	40 e2       	ldi	r20, 0x20	; 32
    18c8:	50 e0       	ldi	r21, 0x00	; 0
    18ca:	60 e0       	ldi	r22, 0x00	; 0
    18cc:	70 e0       	ldi	r23, 0x00	; 0
    18ce:	80 e7       	ldi	r24, 0x70	; 112
    18d0:	90 e0       	ldi	r25, 0x00	; 0
    18d2:	0e 94 aa 04 	call	0x954	; 0x954 <create_thread>
    18d6:	40 e2       	ldi	r20, 0x20	; 32
    18d8:	50 e0       	ldi	r21, 0x00	; 0
    18da:	60 e0       	ldi	r22, 0x00	; 0
    18dc:	70 e0       	ldi	r23, 0x00	; 0
    18de:	8a eb       	ldi	r24, 0xBA	; 186
    18e0:	91 e0       	ldi	r25, 0x01	; 1
    18e2:	0e 94 aa 04 	call	0x954	; 0x954 <create_thread>
    18e6:	40 e2       	ldi	r20, 0x20	; 32
    18e8:	50 e0       	ldi	r21, 0x00	; 0
    18ea:	60 e0       	ldi	r22, 0x00	; 0
    18ec:	70 e0       	ldi	r23, 0x00	; 0
    18ee:	83 e5       	ldi	r24, 0x53	; 83
    18f0:	90 e0       	ldi	r25, 0x00	; 0
    18f2:	0e 94 aa 04 	call	0x954	; 0x954 <create_thread>
    18f6:	0e 94 49 04 	call	0x892	; 0x892 <os_start>
    18fa:	78 94       	sei
    18fc:	ff cf       	rjmp	.-2      	; 0x18fc <main+0x74>

000018fe <__divmodhi4>:
    18fe:	97 fb       	bst	r25, 7
    1900:	07 2e       	mov	r0, r23
    1902:	16 f4       	brtc	.+4      	; 0x1908 <__divmodhi4+0xa>
    1904:	00 94       	com	r0
    1906:	07 d0       	rcall	.+14     	; 0x1916 <__divmodhi4_neg1>
    1908:	77 fd       	sbrc	r23, 7
    190a:	09 d0       	rcall	.+18     	; 0x191e <__divmodhi4_neg2>
    190c:	0e 94 c4 0c 	call	0x1988	; 0x1988 <__udivmodhi4>
    1910:	07 fc       	sbrc	r0, 7
    1912:	05 d0       	rcall	.+10     	; 0x191e <__divmodhi4_neg2>
    1914:	3e f4       	brtc	.+14     	; 0x1924 <__divmodhi4_exit>

00001916 <__divmodhi4_neg1>:
    1916:	90 95       	com	r25
    1918:	81 95       	neg	r24
    191a:	9f 4f       	sbci	r25, 0xFF	; 255
    191c:	08 95       	ret

0000191e <__divmodhi4_neg2>:
    191e:	70 95       	com	r23
    1920:	61 95       	neg	r22
    1922:	7f 4f       	sbci	r23, 0xFF	; 255

00001924 <__divmodhi4_exit>:
    1924:	08 95       	ret

00001926 <__udivmodsi4>:
    1926:	a1 e2       	ldi	r26, 0x21	; 33
    1928:	1a 2e       	mov	r1, r26
    192a:	aa 1b       	sub	r26, r26
    192c:	bb 1b       	sub	r27, r27
    192e:	fd 01       	movw	r30, r26
    1930:	0d c0       	rjmp	.+26     	; 0x194c <__udivmodsi4_ep>

00001932 <__udivmodsi4_loop>:
    1932:	aa 1f       	adc	r26, r26
    1934:	bb 1f       	adc	r27, r27
    1936:	ee 1f       	adc	r30, r30
    1938:	ff 1f       	adc	r31, r31
    193a:	a2 17       	cp	r26, r18
    193c:	b3 07       	cpc	r27, r19
    193e:	e4 07       	cpc	r30, r20
    1940:	f5 07       	cpc	r31, r21
    1942:	20 f0       	brcs	.+8      	; 0x194c <__udivmodsi4_ep>
    1944:	a2 1b       	sub	r26, r18
    1946:	b3 0b       	sbc	r27, r19
    1948:	e4 0b       	sbc	r30, r20
    194a:	f5 0b       	sbc	r31, r21

0000194c <__udivmodsi4_ep>:
    194c:	66 1f       	adc	r22, r22
    194e:	77 1f       	adc	r23, r23
    1950:	88 1f       	adc	r24, r24
    1952:	99 1f       	adc	r25, r25
    1954:	1a 94       	dec	r1
    1956:	69 f7       	brne	.-38     	; 0x1932 <__udivmodsi4_loop>
    1958:	60 95       	com	r22
    195a:	70 95       	com	r23
    195c:	80 95       	com	r24
    195e:	90 95       	com	r25
    1960:	9b 01       	movw	r18, r22
    1962:	ac 01       	movw	r20, r24
    1964:	bd 01       	movw	r22, r26
    1966:	cf 01       	movw	r24, r30
    1968:	08 95       	ret

0000196a <__umulhisi3>:
    196a:	a2 9f       	mul	r26, r18
    196c:	b0 01       	movw	r22, r0
    196e:	b3 9f       	mul	r27, r19
    1970:	c0 01       	movw	r24, r0
    1972:	a3 9f       	mul	r26, r19
    1974:	70 0d       	add	r23, r0
    1976:	81 1d       	adc	r24, r1
    1978:	11 24       	eor	r1, r1
    197a:	91 1d       	adc	r25, r1
    197c:	b2 9f       	mul	r27, r18
    197e:	70 0d       	add	r23, r0
    1980:	81 1d       	adc	r24, r1
    1982:	11 24       	eor	r1, r1
    1984:	91 1d       	adc	r25, r1
    1986:	08 95       	ret

00001988 <__udivmodhi4>:
    1988:	aa 1b       	sub	r26, r26
    198a:	bb 1b       	sub	r27, r27
    198c:	51 e1       	ldi	r21, 0x11	; 17
    198e:	07 c0       	rjmp	.+14     	; 0x199e <__udivmodhi4_ep>

00001990 <__udivmodhi4_loop>:
    1990:	aa 1f       	adc	r26, r26
    1992:	bb 1f       	adc	r27, r27
    1994:	a6 17       	cp	r26, r22
    1996:	b7 07       	cpc	r27, r23
    1998:	10 f0       	brcs	.+4      	; 0x199e <__udivmodhi4_ep>
    199a:	a6 1b       	sub	r26, r22
    199c:	b7 0b       	sbc	r27, r23

0000199e <__udivmodhi4_ep>:
    199e:	88 1f       	adc	r24, r24
    19a0:	99 1f       	adc	r25, r25
    19a2:	5a 95       	dec	r21
    19a4:	a9 f7       	brne	.-22     	; 0x1990 <__udivmodhi4_loop>
    19a6:	80 95       	com	r24
    19a8:	90 95       	com	r25
    19aa:	bc 01       	movw	r22, r24
    19ac:	cd 01       	movw	r24, r26
    19ae:	08 95       	ret

000019b0 <calloc>:
    19b0:	0f 93       	push	r16
    19b2:	1f 93       	push	r17
    19b4:	cf 93       	push	r28
    19b6:	df 93       	push	r29
    19b8:	86 9f       	mul	r24, r22
    19ba:	80 01       	movw	r16, r0
    19bc:	87 9f       	mul	r24, r23
    19be:	10 0d       	add	r17, r0
    19c0:	96 9f       	mul	r25, r22
    19c2:	10 0d       	add	r17, r0
    19c4:	11 24       	eor	r1, r1
    19c6:	c8 01       	movw	r24, r16
    19c8:	0e 94 f4 0c 	call	0x19e8	; 0x19e8 <malloc>
    19cc:	ec 01       	movw	r28, r24
    19ce:	00 97       	sbiw	r24, 0x00	; 0
    19d0:	29 f0       	breq	.+10     	; 0x19dc <calloc+0x2c>
    19d2:	a8 01       	movw	r20, r16
    19d4:	60 e0       	ldi	r22, 0x00	; 0
    19d6:	70 e0       	ldi	r23, 0x00	; 0
    19d8:	0e 94 1b 0e 	call	0x1c36	; 0x1c36 <memset>
    19dc:	ce 01       	movw	r24, r28
    19de:	df 91       	pop	r29
    19e0:	cf 91       	pop	r28
    19e2:	1f 91       	pop	r17
    19e4:	0f 91       	pop	r16
    19e6:	08 95       	ret

000019e8 <malloc>:
    19e8:	cf 93       	push	r28
    19ea:	df 93       	push	r29
    19ec:	82 30       	cpi	r24, 0x02	; 2
    19ee:	91 05       	cpc	r25, r1
    19f0:	10 f4       	brcc	.+4      	; 0x19f6 <malloc+0xe>
    19f2:	82 e0       	ldi	r24, 0x02	; 2
    19f4:	90 e0       	ldi	r25, 0x00	; 0
    19f6:	e0 91 25 03 	lds	r30, 0x0325
    19fa:	f0 91 26 03 	lds	r31, 0x0326
    19fe:	20 e0       	ldi	r18, 0x00	; 0
    1a00:	30 e0       	ldi	r19, 0x00	; 0
    1a02:	a0 e0       	ldi	r26, 0x00	; 0
    1a04:	b0 e0       	ldi	r27, 0x00	; 0
    1a06:	30 97       	sbiw	r30, 0x00	; 0
    1a08:	39 f1       	breq	.+78     	; 0x1a58 <malloc+0x70>
    1a0a:	40 81       	ld	r20, Z
    1a0c:	51 81       	ldd	r21, Z+1	; 0x01
    1a0e:	48 17       	cp	r20, r24
    1a10:	59 07       	cpc	r21, r25
    1a12:	b8 f0       	brcs	.+46     	; 0x1a42 <malloc+0x5a>
    1a14:	48 17       	cp	r20, r24
    1a16:	59 07       	cpc	r21, r25
    1a18:	71 f4       	brne	.+28     	; 0x1a36 <malloc+0x4e>
    1a1a:	82 81       	ldd	r24, Z+2	; 0x02
    1a1c:	93 81       	ldd	r25, Z+3	; 0x03
    1a1e:	10 97       	sbiw	r26, 0x00	; 0
    1a20:	29 f0       	breq	.+10     	; 0x1a2c <malloc+0x44>
    1a22:	13 96       	adiw	r26, 0x03	; 3
    1a24:	9c 93       	st	X, r25
    1a26:	8e 93       	st	-X, r24
    1a28:	12 97       	sbiw	r26, 0x02	; 2
    1a2a:	2c c0       	rjmp	.+88     	; 0x1a84 <malloc+0x9c>
    1a2c:	90 93 26 03 	sts	0x0326, r25
    1a30:	80 93 25 03 	sts	0x0325, r24
    1a34:	27 c0       	rjmp	.+78     	; 0x1a84 <malloc+0x9c>
    1a36:	21 15       	cp	r18, r1
    1a38:	31 05       	cpc	r19, r1
    1a3a:	31 f0       	breq	.+12     	; 0x1a48 <malloc+0x60>
    1a3c:	42 17       	cp	r20, r18
    1a3e:	53 07       	cpc	r21, r19
    1a40:	18 f0       	brcs	.+6      	; 0x1a48 <malloc+0x60>
    1a42:	a9 01       	movw	r20, r18
    1a44:	db 01       	movw	r26, r22
    1a46:	01 c0       	rjmp	.+2      	; 0x1a4a <malloc+0x62>
    1a48:	ef 01       	movw	r28, r30
    1a4a:	9a 01       	movw	r18, r20
    1a4c:	bd 01       	movw	r22, r26
    1a4e:	df 01       	movw	r26, r30
    1a50:	02 80       	ldd	r0, Z+2	; 0x02
    1a52:	f3 81       	ldd	r31, Z+3	; 0x03
    1a54:	e0 2d       	mov	r30, r0
    1a56:	d7 cf       	rjmp	.-82     	; 0x1a06 <malloc+0x1e>
    1a58:	21 15       	cp	r18, r1
    1a5a:	31 05       	cpc	r19, r1
    1a5c:	f9 f0       	breq	.+62     	; 0x1a9c <malloc+0xb4>
    1a5e:	28 1b       	sub	r18, r24
    1a60:	39 0b       	sbc	r19, r25
    1a62:	24 30       	cpi	r18, 0x04	; 4
    1a64:	31 05       	cpc	r19, r1
    1a66:	80 f4       	brcc	.+32     	; 0x1a88 <malloc+0xa0>
    1a68:	8a 81       	ldd	r24, Y+2	; 0x02
    1a6a:	9b 81       	ldd	r25, Y+3	; 0x03
    1a6c:	61 15       	cp	r22, r1
    1a6e:	71 05       	cpc	r23, r1
    1a70:	21 f0       	breq	.+8      	; 0x1a7a <malloc+0x92>
    1a72:	fb 01       	movw	r30, r22
    1a74:	93 83       	std	Z+3, r25	; 0x03
    1a76:	82 83       	std	Z+2, r24	; 0x02
    1a78:	04 c0       	rjmp	.+8      	; 0x1a82 <malloc+0x9a>
    1a7a:	90 93 26 03 	sts	0x0326, r25
    1a7e:	80 93 25 03 	sts	0x0325, r24
    1a82:	fe 01       	movw	r30, r28
    1a84:	32 96       	adiw	r30, 0x02	; 2
    1a86:	44 c0       	rjmp	.+136    	; 0x1b10 <malloc+0x128>
    1a88:	fe 01       	movw	r30, r28
    1a8a:	e2 0f       	add	r30, r18
    1a8c:	f3 1f       	adc	r31, r19
    1a8e:	81 93       	st	Z+, r24
    1a90:	91 93       	st	Z+, r25
    1a92:	22 50       	subi	r18, 0x02	; 2
    1a94:	31 09       	sbc	r19, r1
    1a96:	39 83       	std	Y+1, r19	; 0x01
    1a98:	28 83       	st	Y, r18
    1a9a:	3a c0       	rjmp	.+116    	; 0x1b10 <malloc+0x128>
    1a9c:	20 91 23 03 	lds	r18, 0x0323
    1aa0:	30 91 24 03 	lds	r19, 0x0324
    1aa4:	23 2b       	or	r18, r19
    1aa6:	41 f4       	brne	.+16     	; 0x1ab8 <malloc+0xd0>
    1aa8:	20 91 02 01 	lds	r18, 0x0102
    1aac:	30 91 03 01 	lds	r19, 0x0103
    1ab0:	30 93 24 03 	sts	0x0324, r19
    1ab4:	20 93 23 03 	sts	0x0323, r18
    1ab8:	20 91 00 01 	lds	r18, 0x0100
    1abc:	30 91 01 01 	lds	r19, 0x0101
    1ac0:	21 15       	cp	r18, r1
    1ac2:	31 05       	cpc	r19, r1
    1ac4:	41 f4       	brne	.+16     	; 0x1ad6 <malloc+0xee>
    1ac6:	2d b7       	in	r18, 0x3d	; 61
    1ac8:	3e b7       	in	r19, 0x3e	; 62
    1aca:	40 91 04 01 	lds	r20, 0x0104
    1ace:	50 91 05 01 	lds	r21, 0x0105
    1ad2:	24 1b       	sub	r18, r20
    1ad4:	35 0b       	sbc	r19, r21
    1ad6:	e0 91 23 03 	lds	r30, 0x0323
    1ada:	f0 91 24 03 	lds	r31, 0x0324
    1ade:	e2 17       	cp	r30, r18
    1ae0:	f3 07       	cpc	r31, r19
    1ae2:	a0 f4       	brcc	.+40     	; 0x1b0c <malloc+0x124>
    1ae4:	2e 1b       	sub	r18, r30
    1ae6:	3f 0b       	sbc	r19, r31
    1ae8:	28 17       	cp	r18, r24
    1aea:	39 07       	cpc	r19, r25
    1aec:	78 f0       	brcs	.+30     	; 0x1b0c <malloc+0x124>
    1aee:	ac 01       	movw	r20, r24
    1af0:	4e 5f       	subi	r20, 0xFE	; 254
    1af2:	5f 4f       	sbci	r21, 0xFF	; 255
    1af4:	24 17       	cp	r18, r20
    1af6:	35 07       	cpc	r19, r21
    1af8:	48 f0       	brcs	.+18     	; 0x1b0c <malloc+0x124>
    1afa:	4e 0f       	add	r20, r30
    1afc:	5f 1f       	adc	r21, r31
    1afe:	50 93 24 03 	sts	0x0324, r21
    1b02:	40 93 23 03 	sts	0x0323, r20
    1b06:	81 93       	st	Z+, r24
    1b08:	91 93       	st	Z+, r25
    1b0a:	02 c0       	rjmp	.+4      	; 0x1b10 <malloc+0x128>
    1b0c:	e0 e0       	ldi	r30, 0x00	; 0
    1b0e:	f0 e0       	ldi	r31, 0x00	; 0
    1b10:	cf 01       	movw	r24, r30
    1b12:	df 91       	pop	r29
    1b14:	cf 91       	pop	r28
    1b16:	08 95       	ret

00001b18 <free>:
    1b18:	cf 93       	push	r28
    1b1a:	df 93       	push	r29
    1b1c:	00 97       	sbiw	r24, 0x00	; 0
    1b1e:	09 f4       	brne	.+2      	; 0x1b22 <free+0xa>
    1b20:	87 c0       	rjmp	.+270    	; 0x1c30 <free+0x118>
    1b22:	fc 01       	movw	r30, r24
    1b24:	32 97       	sbiw	r30, 0x02	; 2
    1b26:	13 82       	std	Z+3, r1	; 0x03
    1b28:	12 82       	std	Z+2, r1	; 0x02
    1b2a:	c0 91 25 03 	lds	r28, 0x0325
    1b2e:	d0 91 26 03 	lds	r29, 0x0326
    1b32:	20 97       	sbiw	r28, 0x00	; 0
    1b34:	81 f4       	brne	.+32     	; 0x1b56 <free+0x3e>
    1b36:	20 81       	ld	r18, Z
    1b38:	31 81       	ldd	r19, Z+1	; 0x01
    1b3a:	28 0f       	add	r18, r24
    1b3c:	39 1f       	adc	r19, r25
    1b3e:	80 91 23 03 	lds	r24, 0x0323
    1b42:	90 91 24 03 	lds	r25, 0x0324
    1b46:	82 17       	cp	r24, r18
    1b48:	93 07       	cpc	r25, r19
    1b4a:	79 f5       	brne	.+94     	; 0x1baa <free+0x92>
    1b4c:	f0 93 24 03 	sts	0x0324, r31
    1b50:	e0 93 23 03 	sts	0x0323, r30
    1b54:	6d c0       	rjmp	.+218    	; 0x1c30 <free+0x118>
    1b56:	de 01       	movw	r26, r28
    1b58:	20 e0       	ldi	r18, 0x00	; 0
    1b5a:	30 e0       	ldi	r19, 0x00	; 0
    1b5c:	ae 17       	cp	r26, r30
    1b5e:	bf 07       	cpc	r27, r31
    1b60:	50 f4       	brcc	.+20     	; 0x1b76 <free+0x5e>
    1b62:	12 96       	adiw	r26, 0x02	; 2
    1b64:	4d 91       	ld	r20, X+
    1b66:	5c 91       	ld	r21, X
    1b68:	13 97       	sbiw	r26, 0x03	; 3
    1b6a:	9d 01       	movw	r18, r26
    1b6c:	41 15       	cp	r20, r1
    1b6e:	51 05       	cpc	r21, r1
    1b70:	09 f1       	breq	.+66     	; 0x1bb4 <free+0x9c>
    1b72:	da 01       	movw	r26, r20
    1b74:	f3 cf       	rjmp	.-26     	; 0x1b5c <free+0x44>
    1b76:	b3 83       	std	Z+3, r27	; 0x03
    1b78:	a2 83       	std	Z+2, r26	; 0x02
    1b7a:	40 81       	ld	r20, Z
    1b7c:	51 81       	ldd	r21, Z+1	; 0x01
    1b7e:	84 0f       	add	r24, r20
    1b80:	95 1f       	adc	r25, r21
    1b82:	8a 17       	cp	r24, r26
    1b84:	9b 07       	cpc	r25, r27
    1b86:	71 f4       	brne	.+28     	; 0x1ba4 <free+0x8c>
    1b88:	8d 91       	ld	r24, X+
    1b8a:	9c 91       	ld	r25, X
    1b8c:	11 97       	sbiw	r26, 0x01	; 1
    1b8e:	84 0f       	add	r24, r20
    1b90:	95 1f       	adc	r25, r21
    1b92:	02 96       	adiw	r24, 0x02	; 2
    1b94:	91 83       	std	Z+1, r25	; 0x01
    1b96:	80 83       	st	Z, r24
    1b98:	12 96       	adiw	r26, 0x02	; 2
    1b9a:	8d 91       	ld	r24, X+
    1b9c:	9c 91       	ld	r25, X
    1b9e:	13 97       	sbiw	r26, 0x03	; 3
    1ba0:	93 83       	std	Z+3, r25	; 0x03
    1ba2:	82 83       	std	Z+2, r24	; 0x02
    1ba4:	21 15       	cp	r18, r1
    1ba6:	31 05       	cpc	r19, r1
    1ba8:	29 f4       	brne	.+10     	; 0x1bb4 <free+0x9c>
    1baa:	f0 93 26 03 	sts	0x0326, r31
    1bae:	e0 93 25 03 	sts	0x0325, r30
    1bb2:	3e c0       	rjmp	.+124    	; 0x1c30 <free+0x118>
    1bb4:	d9 01       	movw	r26, r18
    1bb6:	13 96       	adiw	r26, 0x03	; 3
    1bb8:	fc 93       	st	X, r31
    1bba:	ee 93       	st	-X, r30
    1bbc:	12 97       	sbiw	r26, 0x02	; 2
    1bbe:	4d 91       	ld	r20, X+
    1bc0:	5d 91       	ld	r21, X+
    1bc2:	a4 0f       	add	r26, r20
    1bc4:	b5 1f       	adc	r27, r21
    1bc6:	ea 17       	cp	r30, r26
    1bc8:	fb 07       	cpc	r31, r27
    1bca:	79 f4       	brne	.+30     	; 0x1bea <free+0xd2>
    1bcc:	80 81       	ld	r24, Z
    1bce:	91 81       	ldd	r25, Z+1	; 0x01
    1bd0:	84 0f       	add	r24, r20
    1bd2:	95 1f       	adc	r25, r21
    1bd4:	02 96       	adiw	r24, 0x02	; 2
    1bd6:	d9 01       	movw	r26, r18
    1bd8:	11 96       	adiw	r26, 0x01	; 1
    1bda:	9c 93       	st	X, r25
    1bdc:	8e 93       	st	-X, r24
    1bde:	82 81       	ldd	r24, Z+2	; 0x02
    1be0:	93 81       	ldd	r25, Z+3	; 0x03
    1be2:	13 96       	adiw	r26, 0x03	; 3
    1be4:	9c 93       	st	X, r25
    1be6:	8e 93       	st	-X, r24
    1be8:	12 97       	sbiw	r26, 0x02	; 2
    1bea:	e0 e0       	ldi	r30, 0x00	; 0
    1bec:	f0 e0       	ldi	r31, 0x00	; 0
    1bee:	8a 81       	ldd	r24, Y+2	; 0x02
    1bf0:	9b 81       	ldd	r25, Y+3	; 0x03
    1bf2:	00 97       	sbiw	r24, 0x00	; 0
    1bf4:	19 f0       	breq	.+6      	; 0x1bfc <free+0xe4>
    1bf6:	fe 01       	movw	r30, r28
    1bf8:	ec 01       	movw	r28, r24
    1bfa:	f9 cf       	rjmp	.-14     	; 0x1bee <free+0xd6>
    1bfc:	ce 01       	movw	r24, r28
    1bfe:	02 96       	adiw	r24, 0x02	; 2
    1c00:	28 81       	ld	r18, Y
    1c02:	39 81       	ldd	r19, Y+1	; 0x01
    1c04:	82 0f       	add	r24, r18
    1c06:	93 1f       	adc	r25, r19
    1c08:	20 91 23 03 	lds	r18, 0x0323
    1c0c:	30 91 24 03 	lds	r19, 0x0324
    1c10:	28 17       	cp	r18, r24
    1c12:	39 07       	cpc	r19, r25
    1c14:	69 f4       	brne	.+26     	; 0x1c30 <free+0x118>
    1c16:	30 97       	sbiw	r30, 0x00	; 0
    1c18:	29 f4       	brne	.+10     	; 0x1c24 <free+0x10c>
    1c1a:	10 92 26 03 	sts	0x0326, r1
    1c1e:	10 92 25 03 	sts	0x0325, r1
    1c22:	02 c0       	rjmp	.+4      	; 0x1c28 <free+0x110>
    1c24:	13 82       	std	Z+3, r1	; 0x03
    1c26:	12 82       	std	Z+2, r1	; 0x02
    1c28:	d0 93 24 03 	sts	0x0324, r29
    1c2c:	c0 93 23 03 	sts	0x0323, r28
    1c30:	df 91       	pop	r29
    1c32:	cf 91       	pop	r28
    1c34:	08 95       	ret

00001c36 <memset>:
    1c36:	dc 01       	movw	r26, r24
    1c38:	01 c0       	rjmp	.+2      	; 0x1c3c <memset+0x6>
    1c3a:	6d 93       	st	X+, r22
    1c3c:	41 50       	subi	r20, 0x01	; 1
    1c3e:	50 40       	sbci	r21, 0x00	; 0
    1c40:	e0 f7       	brcc	.-8      	; 0x1c3a <memset+0x4>
    1c42:	08 95       	ret

00001c44 <_exit>:
    1c44:	f8 94       	cli

00001c46 <__stop_program>:
    1c46:	ff cf       	rjmp	.-2      	; 0x1c46 <__stop_program>
